
jit:     file format elf64-x86-64


Disassembly of section .text:

0000000000001140 <_start>:
    1140:	f3 0f 1e fa          	endbr64
    1144:	31 ed                	xor    %ebp,%ebp
    1146:	49 89 d1             	mov    %rdx,%r9
    1149:	5e                   	pop    %rsi
    114a:	48 89 e2             	mov    %rsp,%rdx
    114d:	48 83 e4 f0          	and    $0xfffffffffffffff0,%rsp
    1151:	50                   	push   %rax
    1152:	54                   	push   %rsp
    1153:	45 31 c0             	xor    %r8d,%r8d
    1156:	31 c9                	xor    %ecx,%ecx
    1158:	48 8d 3d 6d 01 00 00 	lea    0x16d(%rip),%rdi        # 12cc <main>
    115f:	ff 15 73 7e 00 00    	call   *0x7e73(%rip)        # 8fd8 <__libc_start_main@GLIBC_2.34>
    1165:	f4                   	hlt
    1166:	66 2e 0f 1f 84 00 00 	cs nopw 0x0(%rax,%rax,1)
    116d:	00 00 00 

0000000000001170 <deregister_tm_clones>:
    1170:	48 8d 3d 99 7e 00 00 	lea    0x7e99(%rip),%rdi        # 9010 <stdin@GLIBC_2.2.5>
    1177:	48 8d 05 92 7e 00 00 	lea    0x7e92(%rip),%rax        # 9010 <stdin@GLIBC_2.2.5>
    117e:	48 39 f8             	cmp    %rdi,%rax
    1181:	74 15                	je     1198 <deregister_tm_clones+0x28>
    1183:	48 8b 05 56 7e 00 00 	mov    0x7e56(%rip),%rax        # 8fe0 <_ITM_deregisterTMCloneTable@Base>
    118a:	48 85 c0             	test   %rax,%rax
    118d:	74 09                	je     1198 <deregister_tm_clones+0x28>
    118f:	ff e0                	jmp    *%rax
    1191:	0f 1f 80 00 00 00 00 	nopl   0x0(%rax)
    1198:	c3                   	ret
    1199:	0f 1f 80 00 00 00 00 	nopl   0x0(%rax)

00000000000011a0 <register_tm_clones>:
    11a0:	48 8d 3d 69 7e 00 00 	lea    0x7e69(%rip),%rdi        # 9010 <stdin@GLIBC_2.2.5>
    11a7:	48 8d 35 62 7e 00 00 	lea    0x7e62(%rip),%rsi        # 9010 <stdin@GLIBC_2.2.5>
    11ae:	48 29 fe             	sub    %rdi,%rsi
    11b1:	48 89 f0             	mov    %rsi,%rax
    11b4:	48 c1 ee 3f          	shr    $0x3f,%rsi
    11b8:	48 c1 f8 03          	sar    $0x3,%rax
    11bc:	48 01 c6             	add    %rax,%rsi
    11bf:	48 d1 fe             	sar    %rsi
    11c2:	74 14                	je     11d8 <register_tm_clones+0x38>
    11c4:	48 8b 05 25 7e 00 00 	mov    0x7e25(%rip),%rax        # 8ff0 <_ITM_registerTMCloneTable@Base>
    11cb:	48 85 c0             	test   %rax,%rax
    11ce:	74 08                	je     11d8 <register_tm_clones+0x38>
    11d0:	ff e0                	jmp    *%rax
    11d2:	66 0f 1f 44 00 00    	nopw   0x0(%rax,%rax,1)
    11d8:	c3                   	ret
    11d9:	0f 1f 80 00 00 00 00 	nopl   0x0(%rax)

00000000000011e0 <__do_global_dtors_aux>:
    11e0:	f3 0f 1e fa          	endbr64
    11e4:	80 3d 2d 7e 00 00 00 	cmpb   $0x0,0x7e2d(%rip)        # 9018 <completed.0>
    11eb:	75 2b                	jne    1218 <__do_global_dtors_aux+0x38>
    11ed:	55                   	push   %rbp
    11ee:	48 83 3d 02 7e 00 00 	cmpq   $0x0,0x7e02(%rip)        # 8ff8 <__cxa_finalize@GLIBC_2.2.5>
    11f5:	00 
    11f6:	48 89 e5             	mov    %rsp,%rbp
    11f9:	74 0c                	je     1207 <__do_global_dtors_aux+0x27>
    11fb:	48 8b 3d 06 7e 00 00 	mov    0x7e06(%rip),%rdi        # 9008 <__dso_handle>
    1202:	e8 a9 fe ff ff       	call   10b0 <__cxa_finalize@plt>
    1207:	e8 64 ff ff ff       	call   1170 <deregister_tm_clones>
    120c:	c6 05 05 7e 00 00 01 	movb   $0x1,0x7e05(%rip)        # 9018 <completed.0>
    1213:	5d                   	pop    %rbp
    1214:	c3                   	ret
    1215:	0f 1f 00             	nopl   (%rax)
    1218:	c3                   	ret
    1219:	0f 1f 80 00 00 00 00 	nopl   0x0(%rax)

0000000000001220 <frame_dummy>:
    1220:	f3 0f 1e fa          	endbr64
    1224:	e9 77 ff ff ff       	jmp    11a0 <register_tm_clones>

0000000000001229 <convert_to_hex>:
    1229:	f3 0f 1e fa          	endbr64
    122d:	55                   	push   %rbp
    122e:	48 89 e5             	mov    %rsp,%rbp
    1231:	48 83 ec 30          	sub    $0x30,%rsp
    1235:	89 f8                	mov    %edi,%eax
    1237:	88 45 dc             	mov    %al,-0x24(%rbp)
    123a:	80 7d dc 2f          	cmpb   $0x2f,-0x24(%rbp)
    123e:	7e 0f                	jle    124f <convert_to_hex+0x26>
    1240:	80 7d dc 39          	cmpb   $0x39,-0x24(%rbp)
    1244:	7f 09                	jg     124f <convert_to_hex+0x26>
    1246:	0f be 45 dc          	movsbl -0x24(%rbp),%eax
    124a:	83 e8 30             	sub    $0x30,%eax
    124d:	eb 7b                	jmp    12ca <convert_to_hex+0xa1>
    124f:	80 7d dc 40          	cmpb   $0x40,-0x24(%rbp)
    1253:	7e 0f                	jle    1264 <convert_to_hex+0x3b>
    1255:	80 7d dc 46          	cmpb   $0x46,-0x24(%rbp)
    1259:	7f 09                	jg     1264 <convert_to_hex+0x3b>
    125b:	0f be 45 dc          	movsbl -0x24(%rbp),%eax
    125f:	83 e8 37             	sub    $0x37,%eax
    1262:	eb 66                	jmp    12ca <convert_to_hex+0xa1>
    1264:	80 7d dc 60          	cmpb   $0x60,-0x24(%rbp)
    1268:	7e 0f                	jle    1279 <convert_to_hex+0x50>
    126a:	80 7d dc 66          	cmpb   $0x66,-0x24(%rbp)
    126e:	7f 09                	jg     1279 <convert_to_hex+0x50>
    1270:	0f be 45 dc          	movsbl -0x24(%rbp),%eax
    1274:	83 e8 57             	sub    $0x57,%eax
    1277:	eb 51                	jmp    12ca <convert_to_hex+0xa1>
    1279:	c7 45 e4 ff ff ff ff 	movl   $0xffffffff,-0x1c(%rbp)
    1280:	c7 45 e8 00 00 00 00 	movl   $0x0,-0x18(%rbp)
    1287:	48 8d 05 76 5d 00 00 	lea    0x5d76(%rip),%rax        # 7004 <_IO_stdin_used+0x4>
    128e:	48 89 45 f0          	mov    %rax,-0x10(%rbp)
    1292:	c7 45 ec 1a 00 00 00 	movl   $0x1a,-0x14(%rbp)
    1299:	48 8d 05 6a 5d 00 00 	lea    0x5d6a(%rip),%rax        # 700a <_IO_stdin_used+0xa>
    12a0:	48 89 45 f8          	mov    %rax,-0x8(%rbp)
    12a4:	48 8b 7d f8          	mov    -0x8(%rbp),%rdi
    12a8:	8b 4d ec             	mov    -0x14(%rbp),%ecx
    12ab:	48 8b 55 f0          	mov    -0x10(%rbp),%rdx
    12af:	8b 75 e8             	mov    -0x18(%rbp),%esi
    12b2:	8b 45 e4             	mov    -0x1c(%rbp),%eax
    12b5:	49 89 f8             	mov    %rdi,%r8
    12b8:	89 c7                	mov    %eax,%edi
    12ba:	b8 00 00 00 00       	mov    $0x0,%eax
    12bf:	e8 0c fe ff ff       	call   10d0 <error_at_line@plt>
    12c4:	90                   	nop
    12c5:	b8 ff ff ff ff       	mov    $0xffffffff,%eax
    12ca:	c9                   	leave
    12cb:	c3                   	ret

00000000000012cc <main>:
    12cc:	f3 0f 1e fa          	endbr64
    12d0:	55                   	push   %rbp
    12d1:	48 89 e5             	mov    %rsp,%rbp
    12d4:	53                   	push   %rbx
    12d5:	48 81 ec 68 04 00 00 	sub    $0x468,%rsp
    12dc:	89 bd 9c fb ff ff    	mov    %edi,-0x464(%rbp)
    12e2:	48 89 b5 90 fb ff ff 	mov    %rsi,-0x470(%rbp)
    12e9:	64 48 8b 04 25 28 00 	mov    %fs:0x28,%rax
    12f0:	00 00 
    12f2:	48 89 45 e8          	mov    %rax,-0x18(%rbp)
    12f6:	31 c0                	xor    %eax,%eax
    12f8:	e8 33 fe ff ff       	call   1130 <getpagesize@plt>
    12fd:	48 98                	cltq
    12ff:	41 b9 00 00 00 00    	mov    $0x0,%r9d
    1305:	41 b8 ff ff ff ff    	mov    $0xffffffff,%r8d
    130b:	b9 21 00 00 00       	mov    $0x21,%ecx
    1310:	ba 03 00 00 00       	mov    $0x3,%edx
    1315:	48 89 c6             	mov    %rax,%rsi
    1318:	bf 00 00 00 00       	mov    $0x0,%edi
    131d:	e8 ce fd ff ff       	call   10f0 <mmap@plt>
    1322:	48 89 85 c0 fb ff ff 	mov    %rax,-0x440(%rbp)
    1329:	48 83 bd c0 fb ff ff 	cmpq   $0x0,-0x440(%rbp)
    1330:	00 
    1331:	75 6d                	jne    13a0 <main+0xd4>
    1333:	e8 88 fd ff ff       	call   10c0 <__errno_location@plt>
    1338:	8b 00                	mov    (%rax),%eax
    133a:	c7 85 ac fb ff ff f4 	movl   $0xfffffff4,-0x454(%rbp)
    1341:	ff ff ff 
    1344:	89 85 b0 fb ff ff    	mov    %eax,-0x450(%rbp)
    134a:	48 8d 05 b3 5c 00 00 	lea    0x5cb3(%rip),%rax        # 7004 <_IO_stdin_used+0x4>
    1351:	48 89 85 d0 fb ff ff 	mov    %rax,-0x430(%rbp)
    1358:	c7 85 b4 fb ff ff 2d 	movl   $0x2d,-0x44c(%rbp)
    135f:	00 00 00 
    1362:	48 8d 05 af 5c 00 00 	lea    0x5caf(%rip),%rax        # 7018 <_IO_stdin_used+0x18>
    1369:	48 89 85 d8 fb ff ff 	mov    %rax,-0x428(%rbp)
    1370:	48 8b bd d8 fb ff ff 	mov    -0x428(%rbp),%rdi
    1377:	8b 8d b4 fb ff ff    	mov    -0x44c(%rbp),%ecx
    137d:	48 8b 95 d0 fb ff ff 	mov    -0x430(%rbp),%rdx
    1384:	8b b5 b0 fb ff ff    	mov    -0x450(%rbp),%esi
    138a:	8b 85 ac fb ff ff    	mov    -0x454(%rbp),%eax
    1390:	49 89 f8             	mov    %rdi,%r8
    1393:	89 c7                	mov    %eax,%edi
    1395:	b8 00 00 00 00       	mov    $0x0,%eax
    139a:	e8 31 fd ff ff       	call   10d0 <error_at_line@plt>
    139f:	90                   	nop
    13a0:	48 8b 15 69 7c 00 00 	mov    0x7c69(%rip),%rdx        # 9010 <stdin@GLIBC_2.2.5>
    13a7:	48 8d 85 e0 fb ff ff 	lea    -0x420(%rbp),%rax
    13ae:	be 00 04 00 00       	mov    $0x400,%esi
    13b3:	48 89 c7             	mov    %rax,%rdi
    13b6:	e8 55 fd ff ff       	call   1110 <fgets@plt>
    13bb:	48 c7 85 b8 fb ff ff 	movq   $0x0,-0x448(%rbp)
    13c2:	00 00 00 00 
    13c6:	eb 61                	jmp    1429 <main+0x15d>
    13c8:	48 8b 85 b8 fb ff ff 	mov    -0x448(%rbp),%rax
    13cf:	48 01 c0             	add    %rax,%rax
    13d2:	0f b6 84 05 e0 fb ff 	movzbl -0x420(%rbp,%rax,1),%eax
    13d9:	ff 
    13da:	0f be c0             	movsbl %al,%eax
    13dd:	89 c7                	mov    %eax,%edi
    13df:	e8 45 fe ff ff       	call   1229 <convert_to_hex>
    13e4:	c1 e0 04             	shl    $0x4,%eax
    13e7:	89 c3                	mov    %eax,%ebx
    13e9:	48 8b 85 b8 fb ff ff 	mov    -0x448(%rbp),%rax
    13f0:	48 01 c0             	add    %rax,%rax
    13f3:	48 83 c0 01          	add    $0x1,%rax
    13f7:	0f b6 84 05 e0 fb ff 	movzbl -0x420(%rbp,%rax,1),%eax
    13fe:	ff 
    13ff:	0f be c0             	movsbl %al,%eax
    1402:	89 c7                	mov    %eax,%edi
    1404:	e8 20 fe ff ff       	call   1229 <convert_to_hex>
    1409:	8d 0c 03             	lea    (%rbx,%rax,1),%ecx
    140c:	48 8b 95 c0 fb ff ff 	mov    -0x440(%rbp),%rdx
    1413:	48 8b 85 b8 fb ff ff 	mov    -0x448(%rbp),%rax
    141a:	48 01 d0             	add    %rdx,%rax
    141d:	89 ca                	mov    %ecx,%edx
    141f:	88 10                	mov    %dl,(%rax)
    1421:	48 83 85 b8 fb ff ff 	addq   $0x1,-0x448(%rbp)
    1428:	01 
    1429:	48 8b 85 b8 fb ff ff 	mov    -0x448(%rbp),%rax
    1430:	48 01 c0             	add    %rax,%rax
    1433:	48 83 c0 01          	add    $0x1,%rax
    1437:	0f b6 84 05 e0 fb ff 	movzbl -0x420(%rbp,%rax,1),%eax
    143e:	ff 
    143f:	84 c0                	test   %al,%al
    1441:	75 85                	jne    13c8 <main+0xfc>
    1443:	e8 e8 fc ff ff       	call   1130 <getpagesize@plt>
    1448:	48 63 c8             	movslq %eax,%rcx
    144b:	48 8b 85 c0 fb ff ff 	mov    -0x440(%rbp),%rax
    1452:	ba 05 00 00 00       	mov    $0x5,%edx
    1457:	48 89 ce             	mov    %rcx,%rsi
    145a:	48 89 c7             	mov    %rax,%rdi
    145d:	e8 be fc ff ff       	call   1120 <mprotect@plt>
    1462:	48 8b 85 c0 fb ff ff 	mov    -0x440(%rbp),%rax
    1469:	48 89 85 c8 fb ff ff 	mov    %rax,-0x438(%rbp)
    1470:	48 8b 85 c8 fb ff ff 	mov    -0x438(%rbp),%rax
    1477:	ff d0                	call   *%rax
    1479:	89 c6                	mov    %eax,%esi
    147b:	48 8d 05 a9 5b 00 00 	lea    0x5ba9(%rip),%rax        # 702b <_IO_stdin_used+0x2b>
    1482:	48 89 c7             	mov    %rax,%rdi
    1485:	b8 00 00 00 00       	mov    $0x0,%eax
    148a:	e8 71 fc ff ff       	call   1100 <printf@plt>
    148f:	b8 00 00 00 00       	mov    $0x0,%eax
    1494:	48 8b 55 e8          	mov    -0x18(%rbp),%rdx
    1498:	64 48 2b 14 25 28 00 	sub    %fs:0x28,%rdx
    149f:	00 00 
    14a1:	74 05                	je     14a8 <main+0x1dc>
    14a3:	e8 38 fc ff ff       	call   10e0 <__stack_chk_fail@plt>
    14a8:	48 8b 5d f8          	mov    -0x8(%rbp),%rbx
    14ac:	c9                   	leave
    14ad:	c3                   	ret

00000000000014ae <hash>:
    14ae:	f3 0f 1e fa          	endbr64
    14b2:	55                   	push   %rbp
    14b3:	48 89 e5             	mov    %rsp,%rbp
    14b6:	48 89 7d e8          	mov    %rdi,-0x18(%rbp)
    14ba:	48 c7 45 f8 05 15 00 	movq   $0x1505,-0x8(%rbp)
    14c1:	00 
    14c2:	eb 1e                	jmp    14e2 <hash+0x34>
    14c4:	48 8b 45 f8          	mov    -0x8(%rbp),%rax
    14c8:	48 c1 e0 05          	shl    $0x5,%rax
    14cc:	48 89 c2             	mov    %rax,%rdx
    14cf:	48 8b 45 f8          	mov    -0x8(%rbp),%rax
    14d3:	48 01 c2             	add    %rax,%rdx
    14d6:	8b 45 f4             	mov    -0xc(%rbp),%eax
    14d9:	48 98                	cltq
    14db:	48 01 d0             	add    %rdx,%rax
    14de:	48 89 45 f8          	mov    %rax,-0x8(%rbp)
    14e2:	48 8b 45 e8          	mov    -0x18(%rbp),%rax
    14e6:	48 8d 50 01          	lea    0x1(%rax),%rdx
    14ea:	48 89 55 e8          	mov    %rdx,-0x18(%rbp)
    14ee:	0f b6 00             	movzbl (%rax),%eax
    14f1:	0f b6 c0             	movzbl %al,%eax
    14f4:	89 45 f4             	mov    %eax,-0xc(%rbp)
    14f7:	83 7d f4 00          	cmpl   $0x0,-0xc(%rbp)
    14fb:	75 c7                	jne    14c4 <hash+0x16>
    14fd:	48 8b 45 f8          	mov    -0x8(%rbp),%rax
    1501:	5d                   	pop    %rbp
    1502:	c3                   	ret

0000000000001503 <move_var>:
    1503:	f3 0f 1e fa          	endbr64
    1507:	55                   	push   %rbp
    1508:	48 89 e5             	mov    %rsp,%rbp
    150b:	48 83 ec 40          	sub    $0x40,%rsp
    150f:	48 89 7d d8          	mov    %rdi,-0x28(%rbp)
    1513:	48 89 75 d0          	mov    %rsi,-0x30(%rbp)
    1517:	48 89 55 c8          	mov    %rdx,-0x38(%rbp)
    151b:	48 8b 45 d8          	mov    -0x28(%rbp),%rax
    151f:	48 89 c7             	mov    %rax,%rdi
    1522:	e8 87 ff ff ff       	call   14ae <hash>
    1527:	48 89 45 f0          	mov    %rax,-0x10(%rbp)
    152b:	48 8b 45 d0          	mov    -0x30(%rbp),%rax
    152f:	48 89 c7             	mov    %rax,%rdi
    1532:	e8 77 ff ff ff       	call   14ae <hash>
    1537:	48 89 45 f8          	mov    %rax,-0x8(%rbp)
    153b:	c7 45 ec 00 00 00 00 	movl   $0x0,-0x14(%rbp)
    1542:	48 8b 55 d0          	mov    -0x30(%rbp),%rdx
    1546:	48 8b 45 d8          	mov    -0x28(%rbp),%rax
    154a:	48 89 c6             	mov    %rax,%rsi
    154d:	48 8d 05 dc 5a 00 00 	lea    0x5adc(%rip),%rax        # 7030 <_IO_stdin_used+0x30>
    1554:	48 89 c7             	mov    %rax,%rdi
    1557:	b8 00 00 00 00       	mov    $0x0,%eax
    155c:	e8 9f fb ff ff       	call   1100 <printf@plt>
    1561:	48 81 7d f0 1a a7 88 	cmpq   $0xb88a71a,-0x10(%rbp)
    1568:	0b 
    1569:	0f 84 55 52 00 00    	je     67c4 <move_var+0x52c1>
    156f:	48 81 7d f0 1a a7 88 	cmpq   $0xb88a71a,-0x10(%rbp)
    1576:	0b 
    1577:	0f 87 cb 57 00 00    	ja     6d48 <move_var+0x5845>
    157d:	48 81 7d f0 13 a7 88 	cmpq   $0xb88a713,-0x10(%rbp)
    1584:	0b 
    1585:	0f 84 e0 4c 00 00    	je     626b <move_var+0x4d68>
    158b:	48 81 7d f0 13 a7 88 	cmpq   $0xb88a713,-0x10(%rbp)
    1592:	0b 
    1593:	0f 87 af 57 00 00    	ja     6d48 <move_var+0x5845>
    1599:	48 81 7d f0 33 a5 88 	cmpq   $0xb88a533,-0x10(%rbp)
    15a0:	0b 
    15a1:	0f 84 6b 47 00 00    	je     5d12 <move_var+0x480f>
    15a7:	48 81 7d f0 33 a5 88 	cmpq   $0xb88a533,-0x10(%rbp)
    15ae:	0b 
    15af:	0f 87 93 57 00 00    	ja     6d48 <move_var+0x5845>
    15b5:	48 81 7d f0 24 a5 88 	cmpq   $0xb88a524,-0x10(%rbp)
    15bc:	0b 
    15bd:	0f 84 f6 41 00 00    	je     57b9 <move_var+0x42b6>
    15c3:	48 81 7d f0 24 a5 88 	cmpq   $0xb88a524,-0x10(%rbp)
    15ca:	0b 
    15cb:	0f 87 77 57 00 00    	ja     6d48 <move_var+0x5845>
    15d1:	48 81 7d f0 12 a5 88 	cmpq   $0xb88a512,-0x10(%rbp)
    15d8:	0b 
    15d9:	0f 84 81 3c 00 00    	je     5260 <move_var+0x3d5d>
    15df:	48 81 7d f0 12 a5 88 	cmpq   $0xb88a512,-0x10(%rbp)
    15e6:	0b 
    15e7:	0f 87 5b 57 00 00    	ja     6d48 <move_var+0x5845>
    15ed:	48 81 7d f0 f1 a4 88 	cmpq   $0xb88a4f1,-0x10(%rbp)
    15f4:	0b 
    15f5:	0f 84 0c 37 00 00    	je     4d07 <move_var+0x3804>
    15fb:	48 81 7d f0 f1 a4 88 	cmpq   $0xb88a4f1,-0x10(%rbp)
    1602:	0b 
    1603:	0f 87 3f 57 00 00    	ja     6d48 <move_var+0x5845>
    1609:	48 81 7d f0 e9 a4 88 	cmpq   $0xb88a4e9,-0x10(%rbp)
    1610:	0b 
    1611:	0f 84 97 31 00 00    	je     47ae <move_var+0x32ab>
    1617:	48 81 7d f0 e9 a4 88 	cmpq   $0xb88a4e9,-0x10(%rbp)
    161e:	0b 
    161f:	0f 87 23 57 00 00    	ja     6d48 <move_var+0x5845>
    1625:	48 81 7d f0 d0 a4 88 	cmpq   $0xb88a4d0,-0x10(%rbp)
    162c:	0b 
    162d:	0f 84 22 2c 00 00    	je     4255 <move_var+0x2d52>
    1633:	48 81 7d f0 d0 a4 88 	cmpq   $0xb88a4d0,-0x10(%rbp)
    163a:	0b 
    163b:	0f 87 07 57 00 00    	ja     6d48 <move_var+0x5845>
    1641:	48 81 7d f0 5d 9e 88 	cmpq   $0xb889e5d,-0x10(%rbp)
    1648:	0b 
    1649:	0f 87 f9 56 00 00    	ja     6d48 <move_var+0x5845>
    164f:	48 81 7d f0 58 9e 88 	cmpq   $0xb889e58,-0x10(%rbp)
    1656:	0b 
    1657:	73 21                	jae    167a <move_var+0x177>
    1659:	48 81 7d f0 2f 79 59 	cmpq   $0x59792f,-0x10(%rbp)
    1660:	00 
    1661:	0f 84 06 21 00 00    	je     376d <move_var+0x226a>
    1667:	48 81 7d f0 30 79 59 	cmpq   $0x597930,-0x10(%rbp)
    166e:	00 
    166f:	0f 84 6c 26 00 00    	je     3ce1 <move_var+0x27de>
    1675:	e9 ce 56 00 00       	jmp    6d48 <move_var+0x5845>
    167a:	48 8b 45 f0          	mov    -0x10(%rbp),%rax
    167e:	48 2d 58 9e 88 0b    	sub    $0xb889e58,%rax
    1684:	48 83 f8 05          	cmp    $0x5,%rax
    1688:	0f 87 ba 56 00 00    	ja     6d48 <move_var+0x5845>
    168e:	48 8d 14 85 00 00 00 	lea    0x0(,%rax,4),%rdx
    1695:	00 
    1696:	48 8d 05 ab 59 00 00 	lea    0x59ab(%rip),%rax        # 7048 <_IO_stdin_used+0x48>
    169d:	8b 04 02             	mov    (%rdx,%rax,1),%eax
    16a0:	48 98                	cltq
    16a2:	48 8d 15 9f 59 00 00 	lea    0x599f(%rip),%rdx        # 7048 <_IO_stdin_used+0x48>
    16a9:	48 01 d0             	add    %rdx,%rax
    16ac:	3e ff e0             	notrack jmp *%rax
    16af:	48 81 7d f8 1a a7 88 	cmpq   $0xb88a71a,-0x8(%rbp)
    16b6:	0b 
    16b7:	0f 84 1f 05 00 00    	je     1bdc <move_var+0x6d9>
    16bd:	48 81 7d f8 1a a7 88 	cmpq   $0xb88a71a,-0x8(%rbp)
    16c4:	0b 
    16c5:	0f 87 4f 56 00 00    	ja     6d1a <move_var+0x5817>
    16cb:	48 81 7d f8 13 a7 88 	cmpq   $0xb88a713,-0x8(%rbp)
    16d2:	0b 
    16d3:	0f 84 bf 04 00 00    	je     1b98 <move_var+0x695>
    16d9:	48 81 7d f8 13 a7 88 	cmpq   $0xb88a713,-0x8(%rbp)
    16e0:	0b 
    16e1:	0f 87 33 56 00 00    	ja     6d1a <move_var+0x5817>
    16e7:	48 81 7d f8 33 a5 88 	cmpq   $0xb88a533,-0x8(%rbp)
    16ee:	0b 
    16ef:	0f 84 5c 04 00 00    	je     1b51 <move_var+0x64e>
    16f5:	48 81 7d f8 33 a5 88 	cmpq   $0xb88a533,-0x8(%rbp)
    16fc:	0b 
    16fd:	0f 87 17 56 00 00    	ja     6d1a <move_var+0x5817>
    1703:	48 81 7d f8 24 a5 88 	cmpq   $0xb88a524,-0x8(%rbp)
    170a:	0b 
    170b:	0f 84 f9 03 00 00    	je     1b0a <move_var+0x607>
    1711:	48 81 7d f8 24 a5 88 	cmpq   $0xb88a524,-0x8(%rbp)
    1718:	0b 
    1719:	0f 87 fb 55 00 00    	ja     6d1a <move_var+0x5817>
    171f:	48 81 7d f8 12 a5 88 	cmpq   $0xb88a512,-0x8(%rbp)
    1726:	0b 
    1727:	0f 84 96 03 00 00    	je     1ac3 <move_var+0x5c0>
    172d:	48 81 7d f8 12 a5 88 	cmpq   $0xb88a512,-0x8(%rbp)
    1734:	0b 
    1735:	0f 87 df 55 00 00    	ja     6d1a <move_var+0x5817>
    173b:	48 81 7d f8 f1 a4 88 	cmpq   $0xb88a4f1,-0x8(%rbp)
    1742:	0b 
    1743:	0f 84 33 03 00 00    	je     1a7c <move_var+0x579>
    1749:	48 81 7d f8 f1 a4 88 	cmpq   $0xb88a4f1,-0x8(%rbp)
    1750:	0b 
    1751:	0f 87 c3 55 00 00    	ja     6d1a <move_var+0x5817>
    1757:	48 81 7d f8 e9 a4 88 	cmpq   $0xb88a4e9,-0x8(%rbp)
    175e:	0b 
    175f:	0f 84 d0 02 00 00    	je     1a35 <move_var+0x532>
    1765:	48 81 7d f8 e9 a4 88 	cmpq   $0xb88a4e9,-0x8(%rbp)
    176c:	0b 
    176d:	0f 87 a7 55 00 00    	ja     6d1a <move_var+0x5817>
    1773:	48 81 7d f8 d0 a4 88 	cmpq   $0xb88a4d0,-0x8(%rbp)
    177a:	0b 
    177b:	0f 84 6d 02 00 00    	je     19ee <move_var+0x4eb>
    1781:	48 81 7d f8 d0 a4 88 	cmpq   $0xb88a4d0,-0x8(%rbp)
    1788:	0b 
    1789:	0f 87 8b 55 00 00    	ja     6d1a <move_var+0x5817>
    178f:	48 81 7d f8 5d 9e 88 	cmpq   $0xb889e5d,-0x8(%rbp)
    1796:	0b 
    1797:	0f 87 7d 55 00 00    	ja     6d1a <move_var+0x5817>
    179d:	48 81 7d f8 59 9e 88 	cmpq   $0xb889e59,-0x8(%rbp)
    17a4:	0b 
    17a5:	73 21                	jae    17c8 <move_var+0x2c5>
    17a7:	48 81 7d f8 2f 79 59 	cmpq   $0x59792f,-0x8(%rbp)
    17ae:	00 
    17af:	0f 84 ab 01 00 00    	je     1960 <move_var+0x45d>
    17b5:	48 81 7d f8 30 79 59 	cmpq   $0x597930,-0x8(%rbp)
    17bc:	00 
    17bd:	0f 84 e4 01 00 00    	je     19a7 <move_var+0x4a4>
    17c3:	e9 52 55 00 00       	jmp    6d1a <move_var+0x5817>
    17c8:	48 8b 45 f8          	mov    -0x8(%rbp),%rax
    17cc:	48 2d 59 9e 88 0b    	sub    $0xb889e59,%rax
    17d2:	48 83 f8 04          	cmp    $0x4,%rax
    17d6:	0f 87 3e 55 00 00    	ja     6d1a <move_var+0x5817>
    17dc:	48 8d 14 85 00 00 00 	lea    0x0(,%rax,4),%rdx
    17e3:	00 
    17e4:	48 8d 05 75 58 00 00 	lea    0x5875(%rip),%rax        # 7060 <_IO_stdin_used+0x60>
    17eb:	8b 04 02             	mov    (%rdx,%rax,1),%eax
    17ee:	48 98                	cltq
    17f0:	48 8d 15 69 58 00 00 	lea    0x5869(%rip),%rdx        # 7060 <_IO_stdin_used+0x60>
    17f7:	48 01 d0             	add    %rdx,%rax
    17fa:	3e ff e0             	notrack jmp *%rax
    17fd:	8b 45 ec             	mov    -0x14(%rbp),%eax
    1800:	8d 50 01             	lea    0x1(%rax),%edx
    1803:	89 55 ec             	mov    %edx,-0x14(%rbp)
    1806:	48 63 d0             	movslq %eax,%rdx
    1809:	48 8b 45 c8          	mov    -0x38(%rbp),%rax
    180d:	48 01 d0             	add    %rdx,%rax
    1810:	c6 00 4d             	movb   $0x4d,(%rax)
    1813:	8b 45 ec             	mov    -0x14(%rbp),%eax
    1816:	8d 50 01             	lea    0x1(%rax),%edx
    1819:	89 55 ec             	mov    %edx,-0x14(%rbp)
    181c:	48 63 d0             	movslq %eax,%rdx
    181f:	48 8b 45 c8          	mov    -0x38(%rbp),%rax
    1823:	48 01 d0             	add    %rdx,%rax
    1826:	c6 00 89             	movb   $0x89,(%rax)
    1829:	8b 45 ec             	mov    -0x14(%rbp),%eax
    182c:	8d 50 01             	lea    0x1(%rax),%edx
    182f:	89 55 ec             	mov    %edx,-0x14(%rbp)
    1832:	48 63 d0             	movslq %eax,%rdx
    1835:	48 8b 45 c8          	mov    -0x38(%rbp),%rax
    1839:	48 01 d0             	add    %rdx,%rax
    183c:	c6 00 d3             	movb   $0xd3,(%rax)
    183f:	e9 db 03 00 00       	jmp    1c1f <move_var+0x71c>
    1844:	8b 45 ec             	mov    -0x14(%rbp),%eax
    1847:	8d 50 01             	lea    0x1(%rax),%edx
    184a:	89 55 ec             	mov    %edx,-0x14(%rbp)
    184d:	48 63 d0             	movslq %eax,%rdx
    1850:	48 8b 45 c8          	mov    -0x38(%rbp),%rax
    1854:	48 01 d0             	add    %rdx,%rax
    1857:	c6 00 4d             	movb   $0x4d,(%rax)
    185a:	8b 45 ec             	mov    -0x14(%rbp),%eax
    185d:	8d 50 01             	lea    0x1(%rax),%edx
    1860:	89 55 ec             	mov    %edx,-0x14(%rbp)
    1863:	48 63 d0             	movslq %eax,%rdx
    1866:	48 8b 45 c8          	mov    -0x38(%rbp),%rax
    186a:	48 01 d0             	add    %rdx,%rax
    186d:	c6 00 89             	movb   $0x89,(%rax)
    1870:	8b 45 ec             	mov    -0x14(%rbp),%eax
    1873:	8d 50 01             	lea    0x1(%rax),%edx
    1876:	89 55 ec             	mov    %edx,-0x14(%rbp)
    1879:	48 63 d0             	movslq %eax,%rdx
    187c:	48 8b 45 c8          	mov    -0x38(%rbp),%rax
    1880:	48 01 d0             	add    %rdx,%rax
    1883:	c6 00 d4             	movb   $0xd4,(%rax)
    1886:	e9 94 03 00 00       	jmp    1c1f <move_var+0x71c>
    188b:	8b 45 ec             	mov    -0x14(%rbp),%eax
    188e:	8d 50 01             	lea    0x1(%rax),%edx
    1891:	89 55 ec             	mov    %edx,-0x14(%rbp)
    1894:	48 63 d0             	movslq %eax,%rdx
    1897:	48 8b 45 c8          	mov    -0x38(%rbp),%rax
    189b:	48 01 d0             	add    %rdx,%rax
    189e:	c6 00 4d             	movb   $0x4d,(%rax)
    18a1:	8b 45 ec             	mov    -0x14(%rbp),%eax
    18a4:	8d 50 01             	lea    0x1(%rax),%edx
    18a7:	89 55 ec             	mov    %edx,-0x14(%rbp)
    18aa:	48 63 d0             	movslq %eax,%rdx
    18ad:	48 8b 45 c8          	mov    -0x38(%rbp),%rax
    18b1:	48 01 d0             	add    %rdx,%rax
    18b4:	c6 00 89             	movb   $0x89,(%rax)
    18b7:	8b 45 ec             	mov    -0x14(%rbp),%eax
    18ba:	8d 50 01             	lea    0x1(%rax),%edx
    18bd:	89 55 ec             	mov    %edx,-0x14(%rbp)
    18c0:	48 63 d0             	movslq %eax,%rdx
    18c3:	48 8b 45 c8          	mov    -0x38(%rbp),%rax
    18c7:	48 01 d0             	add    %rdx,%rax
    18ca:	c6 00 d5             	movb   $0xd5,(%rax)
    18cd:	e9 4d 03 00 00       	jmp    1c1f <move_var+0x71c>
    18d2:	8b 45 ec             	mov    -0x14(%rbp),%eax
    18d5:	8d 50 01             	lea    0x1(%rax),%edx
    18d8:	89 55 ec             	mov    %edx,-0x14(%rbp)
    18db:	48 63 d0             	movslq %eax,%rdx
    18de:	48 8b 45 c8          	mov    -0x38(%rbp),%rax
    18e2:	48 01 d0             	add    %rdx,%rax
    18e5:	c6 00 4d             	movb   $0x4d,(%rax)
    18e8:	8b 45 ec             	mov    -0x14(%rbp),%eax
    18eb:	8d 50 01             	lea    0x1(%rax),%edx
    18ee:	89 55 ec             	mov    %edx,-0x14(%rbp)
    18f1:	48 63 d0             	movslq %eax,%rdx
    18f4:	48 8b 45 c8          	mov    -0x38(%rbp),%rax
    18f8:	48 01 d0             	add    %rdx,%rax
    18fb:	c6 00 89             	movb   $0x89,(%rax)
    18fe:	8b 45 ec             	mov    -0x14(%rbp),%eax
    1901:	8d 50 01             	lea    0x1(%rax),%edx
    1904:	89 55 ec             	mov    %edx,-0x14(%rbp)
    1907:	48 63 d0             	movslq %eax,%rdx
    190a:	48 8b 45 c8          	mov    -0x38(%rbp),%rax
    190e:	48 01 d0             	add    %rdx,%rax
    1911:	c6 00 d6             	movb   $0xd6,(%rax)
    1914:	e9 06 03 00 00       	jmp    1c1f <move_var+0x71c>
    1919:	8b 45 ec             	mov    -0x14(%rbp),%eax
    191c:	8d 50 01             	lea    0x1(%rax),%edx
    191f:	89 55 ec             	mov    %edx,-0x14(%rbp)
    1922:	48 63 d0             	movslq %eax,%rdx
    1925:	48 8b 45 c8          	mov    -0x38(%rbp),%rax
    1929:	48 01 d0             	add    %rdx,%rax
    192c:	c6 00 4d             	movb   $0x4d,(%rax)
    192f:	8b 45 ec             	mov    -0x14(%rbp),%eax
    1932:	8d 50 01             	lea    0x1(%rax),%edx
    1935:	89 55 ec             	mov    %edx,-0x14(%rbp)
    1938:	48 63 d0             	movslq %eax,%rdx
    193b:	48 8b 45 c8          	mov    -0x38(%rbp),%rax
    193f:	48 01 d0             	add    %rdx,%rax
    1942:	c6 00 89             	movb   $0x89,(%rax)
    1945:	8b 45 ec             	mov    -0x14(%rbp),%eax
    1948:	8d 50 01             	lea    0x1(%rax),%edx
    194b:	89 55 ec             	mov    %edx,-0x14(%rbp)
    194e:	48 63 d0             	movslq %eax,%rdx
    1951:	48 8b 45 c8          	mov    -0x38(%rbp),%rax
    1955:	48 01 d0             	add    %rdx,%rax
    1958:	c6 00 d7             	movb   $0xd7,(%rax)
    195b:	e9 bf 02 00 00       	jmp    1c1f <move_var+0x71c>
    1960:	8b 45 ec             	mov    -0x14(%rbp),%eax
    1963:	8d 50 01             	lea    0x1(%rax),%edx
    1966:	89 55 ec             	mov    %edx,-0x14(%rbp)
    1969:	48 63 d0             	movslq %eax,%rdx
    196c:	48 8b 45 c8          	mov    -0x38(%rbp),%rax
    1970:	48 01 d0             	add    %rdx,%rax
    1973:	c6 00 4d             	movb   $0x4d,(%rax)
    1976:	8b 45 ec             	mov    -0x14(%rbp),%eax
    1979:	8d 50 01             	lea    0x1(%rax),%edx
    197c:	89 55 ec             	mov    %edx,-0x14(%rbp)
    197f:	48 63 d0             	movslq %eax,%rdx
    1982:	48 8b 45 c8          	mov    -0x38(%rbp),%rax
    1986:	48 01 d0             	add    %rdx,%rax
    1989:	c6 00 89             	movb   $0x89,(%rax)
    198c:	8b 45 ec             	mov    -0x14(%rbp),%eax
    198f:	8d 50 01             	lea    0x1(%rax),%edx
    1992:	89 55 ec             	mov    %edx,-0x14(%rbp)
    1995:	48 63 d0             	movslq %eax,%rdx
    1998:	48 8b 45 c8          	mov    -0x38(%rbp),%rax
    199c:	48 01 d0             	add    %rdx,%rax
    199f:	c6 00 d0             	movb   $0xd0,(%rax)
    19a2:	e9 78 02 00 00       	jmp    1c1f <move_var+0x71c>
    19a7:	8b 45 ec             	mov    -0x14(%rbp),%eax
    19aa:	8d 50 01             	lea    0x1(%rax),%edx
    19ad:	89 55 ec             	mov    %edx,-0x14(%rbp)
    19b0:	48 63 d0             	movslq %eax,%rdx
    19b3:	48 8b 45 c8          	mov    -0x38(%rbp),%rax
    19b7:	48 01 d0             	add    %rdx,%rax
    19ba:	c6 00 4d             	movb   $0x4d,(%rax)
    19bd:	8b 45 ec             	mov    -0x14(%rbp),%eax
    19c0:	8d 50 01             	lea    0x1(%rax),%edx
    19c3:	89 55 ec             	mov    %edx,-0x14(%rbp)
    19c6:	48 63 d0             	movslq %eax,%rdx
    19c9:	48 8b 45 c8          	mov    -0x38(%rbp),%rax
    19cd:	48 01 d0             	add    %rdx,%rax
    19d0:	c6 00 89             	movb   $0x89,(%rax)
    19d3:	8b 45 ec             	mov    -0x14(%rbp),%eax
    19d6:	8d 50 01             	lea    0x1(%rax),%edx
    19d9:	89 55 ec             	mov    %edx,-0x14(%rbp)
    19dc:	48 63 d0             	movslq %eax,%rdx
    19df:	48 8b 45 c8          	mov    -0x38(%rbp),%rax
    19e3:	48 01 d0             	add    %rdx,%rax
    19e6:	c6 00 d1             	movb   $0xd1,(%rax)
    19e9:	e9 31 02 00 00       	jmp    1c1f <move_var+0x71c>
    19ee:	8b 45 ec             	mov    -0x14(%rbp),%eax
    19f1:	8d 50 01             	lea    0x1(%rax),%edx
    19f4:	89 55 ec             	mov    %edx,-0x14(%rbp)
    19f7:	48 63 d0             	movslq %eax,%rdx
    19fa:	48 8b 45 c8          	mov    -0x38(%rbp),%rax
    19fe:	48 01 d0             	add    %rdx,%rax
    1a01:	c6 00 4c             	movb   $0x4c,(%rax)
    1a04:	8b 45 ec             	mov    -0x14(%rbp),%eax
    1a07:	8d 50 01             	lea    0x1(%rax),%edx
    1a0a:	89 55 ec             	mov    %edx,-0x14(%rbp)
    1a0d:	48 63 d0             	movslq %eax,%rdx
    1a10:	48 8b 45 c8          	mov    -0x38(%rbp),%rax
    1a14:	48 01 d0             	add    %rdx,%rax
    1a17:	c6 00 89             	movb   $0x89,(%rax)
    1a1a:	8b 45 ec             	mov    -0x14(%rbp),%eax
    1a1d:	8d 50 01             	lea    0x1(%rax),%edx
    1a20:	89 55 ec             	mov    %edx,-0x14(%rbp)
    1a23:	48 63 d0             	movslq %eax,%rdx
    1a26:	48 8b 45 c8          	mov    -0x38(%rbp),%rax
    1a2a:	48 01 d0             	add    %rdx,%rax
    1a2d:	c6 00 d0             	movb   $0xd0,(%rax)
    1a30:	e9 ea 01 00 00       	jmp    1c1f <move_var+0x71c>
    1a35:	8b 45 ec             	mov    -0x14(%rbp),%eax
    1a38:	8d 50 01             	lea    0x1(%rax),%edx
    1a3b:	89 55 ec             	mov    %edx,-0x14(%rbp)
    1a3e:	48 63 d0             	movslq %eax,%rdx
    1a41:	48 8b 45 c8          	mov    -0x38(%rbp),%rax
    1a45:	48 01 d0             	add    %rdx,%rax
    1a48:	c6 00 4c             	movb   $0x4c,(%rax)
    1a4b:	8b 45 ec             	mov    -0x14(%rbp),%eax
    1a4e:	8d 50 01             	lea    0x1(%rax),%edx
    1a51:	89 55 ec             	mov    %edx,-0x14(%rbp)
    1a54:	48 63 d0             	movslq %eax,%rdx
    1a57:	48 8b 45 c8          	mov    -0x38(%rbp),%rax
    1a5b:	48 01 d0             	add    %rdx,%rax
    1a5e:	c6 00 89             	movb   $0x89,(%rax)
    1a61:	8b 45 ec             	mov    -0x14(%rbp),%eax
    1a64:	8d 50 01             	lea    0x1(%rax),%edx
    1a67:	89 55 ec             	mov    %edx,-0x14(%rbp)
    1a6a:	48 63 d0             	movslq %eax,%rdx
    1a6d:	48 8b 45 c8          	mov    -0x38(%rbp),%rax
    1a71:	48 01 d0             	add    %rdx,%rax
    1a74:	c6 00 d5             	movb   $0xd5,(%rax)
    1a77:	e9 a3 01 00 00       	jmp    1c1f <move_var+0x71c>
    1a7c:	8b 45 ec             	mov    -0x14(%rbp),%eax
    1a7f:	8d 50 01             	lea    0x1(%rax),%edx
    1a82:	89 55 ec             	mov    %edx,-0x14(%rbp)
    1a85:	48 63 d0             	movslq %eax,%rdx
    1a88:	48 8b 45 c8          	mov    -0x38(%rbp),%rax
    1a8c:	48 01 d0             	add    %rdx,%rax
    1a8f:	c6 00 4c             	movb   $0x4c,(%rax)
    1a92:	8b 45 ec             	mov    -0x14(%rbp),%eax
    1a95:	8d 50 01             	lea    0x1(%rax),%edx
    1a98:	89 55 ec             	mov    %edx,-0x14(%rbp)
    1a9b:	48 63 d0             	movslq %eax,%rdx
    1a9e:	48 8b 45 c8          	mov    -0x38(%rbp),%rax
    1aa2:	48 01 d0             	add    %rdx,%rax
    1aa5:	c6 00 89             	movb   $0x89,(%rax)
    1aa8:	8b 45 ec             	mov    -0x14(%rbp),%eax
    1aab:	8d 50 01             	lea    0x1(%rax),%edx
    1aae:	89 55 ec             	mov    %edx,-0x14(%rbp)
    1ab1:	48 63 d0             	movslq %eax,%rdx
    1ab4:	48 8b 45 c8          	mov    -0x38(%rbp),%rax
    1ab8:	48 01 d0             	add    %rdx,%rax
    1abb:	c6 00 d3             	movb   $0xd3,(%rax)
    1abe:	e9 5c 01 00 00       	jmp    1c1f <move_var+0x71c>
    1ac3:	8b 45 ec             	mov    -0x14(%rbp),%eax
    1ac6:	8d 50 01             	lea    0x1(%rax),%edx
    1ac9:	89 55 ec             	mov    %edx,-0x14(%rbp)
    1acc:	48 63 d0             	movslq %eax,%rdx
    1acf:	48 8b 45 c8          	mov    -0x38(%rbp),%rax
    1ad3:	48 01 d0             	add    %rdx,%rax
    1ad6:	c6 00 4c             	movb   $0x4c,(%rax)
    1ad9:	8b 45 ec             	mov    -0x14(%rbp),%eax
    1adc:	8d 50 01             	lea    0x1(%rax),%edx
    1adf:	89 55 ec             	mov    %edx,-0x14(%rbp)
    1ae2:	48 63 d0             	movslq %eax,%rdx
    1ae5:	48 8b 45 c8          	mov    -0x38(%rbp),%rax
    1ae9:	48 01 d0             	add    %rdx,%rax
    1aec:	c6 00 89             	movb   $0x89,(%rax)
    1aef:	8b 45 ec             	mov    -0x14(%rbp),%eax
    1af2:	8d 50 01             	lea    0x1(%rax),%edx
    1af5:	89 55 ec             	mov    %edx,-0x14(%rbp)
    1af8:	48 63 d0             	movslq %eax,%rdx
    1afb:	48 8b 45 c8          	mov    -0x38(%rbp),%rax
    1aff:	48 01 d0             	add    %rdx,%rax
    1b02:	c6 00 d1             	movb   $0xd1,(%rax)
    1b05:	e9 15 01 00 00       	jmp    1c1f <move_var+0x71c>
    1b0a:	8b 45 ec             	mov    -0x14(%rbp),%eax
    1b0d:	8d 50 01             	lea    0x1(%rax),%edx
    1b10:	89 55 ec             	mov    %edx,-0x14(%rbp)
    1b13:	48 63 d0             	movslq %eax,%rdx
    1b16:	48 8b 45 c8          	mov    -0x38(%rbp),%rax
    1b1a:	48 01 d0             	add    %rdx,%rax
    1b1d:	c6 00 4c             	movb   $0x4c,(%rax)
    1b20:	8b 45 ec             	mov    -0x14(%rbp),%eax
    1b23:	8d 50 01             	lea    0x1(%rax),%edx
    1b26:	89 55 ec             	mov    %edx,-0x14(%rbp)
    1b29:	48 63 d0             	movslq %eax,%rdx
    1b2c:	48 8b 45 c8          	mov    -0x38(%rbp),%rax
    1b30:	48 01 d0             	add    %rdx,%rax
    1b33:	c6 00 89             	movb   $0x89,(%rax)
    1b36:	8b 45 ec             	mov    -0x14(%rbp),%eax
    1b39:	8d 50 01             	lea    0x1(%rax),%edx
    1b3c:	89 55 ec             	mov    %edx,-0x14(%rbp)
    1b3f:	48 63 d0             	movslq %eax,%rdx
    1b42:	48 8b 45 c8          	mov    -0x38(%rbp),%rax
    1b46:	48 01 d0             	add    %rdx,%rax
    1b49:	c6 00 d7             	movb   $0xd7,(%rax)
    1b4c:	e9 ce 00 00 00       	jmp    1c1f <move_var+0x71c>
    1b51:	8b 45 ec             	mov    -0x14(%rbp),%eax
    1b54:	8d 50 01             	lea    0x1(%rax),%edx
    1b57:	89 55 ec             	mov    %edx,-0x14(%rbp)
    1b5a:	48 63 d0             	movslq %eax,%rdx
    1b5d:	48 8b 45 c8          	mov    -0x38(%rbp),%rax
    1b61:	48 01 d0             	add    %rdx,%rax
    1b64:	c6 00 4c             	movb   $0x4c,(%rax)
    1b67:	8b 45 ec             	mov    -0x14(%rbp),%eax
    1b6a:	8d 50 01             	lea    0x1(%rax),%edx
    1b6d:	89 55 ec             	mov    %edx,-0x14(%rbp)
    1b70:	48 63 d0             	movslq %eax,%rdx
    1b73:	48 8b 45 c8          	mov    -0x38(%rbp),%rax
    1b77:	48 01 d0             	add    %rdx,%rax
    1b7a:	c6 00 89             	movb   $0x89,(%rax)
    1b7d:	8b 45 ec             	mov    -0x14(%rbp),%eax
    1b80:	8d 50 01             	lea    0x1(%rax),%edx
    1b83:	89 55 ec             	mov    %edx,-0x14(%rbp)
    1b86:	48 63 d0             	movslq %eax,%rdx
    1b89:	48 8b 45 c8          	mov    -0x38(%rbp),%rax
    1b8d:	48 01 d0             	add    %rdx,%rax
    1b90:	c6 00 d2             	movb   $0xd2,(%rax)
    1b93:	e9 87 00 00 00       	jmp    1c1f <move_var+0x71c>
    1b98:	8b 45 ec             	mov    -0x14(%rbp),%eax
    1b9b:	8d 50 01             	lea    0x1(%rax),%edx
    1b9e:	89 55 ec             	mov    %edx,-0x14(%rbp)
    1ba1:	48 63 d0             	movslq %eax,%rdx
    1ba4:	48 8b 45 c8          	mov    -0x38(%rbp),%rax
    1ba8:	48 01 d0             	add    %rdx,%rax
    1bab:	c6 00 4c             	movb   $0x4c,(%rax)
    1bae:	8b 45 ec             	mov    -0x14(%rbp),%eax
    1bb1:	8d 50 01             	lea    0x1(%rax),%edx
    1bb4:	89 55 ec             	mov    %edx,-0x14(%rbp)
    1bb7:	48 63 d0             	movslq %eax,%rdx
    1bba:	48 8b 45 c8          	mov    -0x38(%rbp),%rax
    1bbe:	48 01 d0             	add    %rdx,%rax
    1bc1:	c6 00 89             	movb   $0x89,(%rax)
    1bc4:	8b 45 ec             	mov    -0x14(%rbp),%eax
    1bc7:	8d 50 01             	lea    0x1(%rax),%edx
    1bca:	89 55 ec             	mov    %edx,-0x14(%rbp)
    1bcd:	48 63 d0             	movslq %eax,%rdx
    1bd0:	48 8b 45 c8          	mov    -0x38(%rbp),%rax
    1bd4:	48 01 d0             	add    %rdx,%rax
    1bd7:	c6 00 d6             	movb   $0xd6,(%rax)
    1bda:	eb 43                	jmp    1c1f <move_var+0x71c>
    1bdc:	8b 45 ec             	mov    -0x14(%rbp),%eax
    1bdf:	8d 50 01             	lea    0x1(%rax),%edx
    1be2:	89 55 ec             	mov    %edx,-0x14(%rbp)
    1be5:	48 63 d0             	movslq %eax,%rdx
    1be8:	48 8b 45 c8          	mov    -0x38(%rbp),%rax
    1bec:	48 01 d0             	add    %rdx,%rax
    1bef:	c6 00 4c             	movb   $0x4c,(%rax)
    1bf2:	8b 45 ec             	mov    -0x14(%rbp),%eax
    1bf5:	8d 50 01             	lea    0x1(%rax),%edx
    1bf8:	89 55 ec             	mov    %edx,-0x14(%rbp)
    1bfb:	48 63 d0             	movslq %eax,%rdx
    1bfe:	48 8b 45 c8          	mov    -0x38(%rbp),%rax
    1c02:	48 01 d0             	add    %rdx,%rax
    1c05:	c6 00 89             	movb   $0x89,(%rax)
    1c08:	8b 45 ec             	mov    -0x14(%rbp),%eax
    1c0b:	8d 50 01             	lea    0x1(%rax),%edx
    1c0e:	89 55 ec             	mov    %edx,-0x14(%rbp)
    1c11:	48 63 d0             	movslq %eax,%rdx
    1c14:	48 8b 45 c8          	mov    -0x38(%rbp),%rax
    1c18:	48 01 d0             	add    %rdx,%rax
    1c1b:	c6 00 d4             	movb   $0xd4,(%rax)
    1c1e:	90                   	nop
    1c1f:	e9 f6 50 00 00       	jmp    6d1a <move_var+0x5817>
    1c24:	48 81 7d f8 1a a7 88 	cmpq   $0xb88a71a,-0x8(%rbp)
    1c2b:	0b 
    1c2c:	0f 84 1f 05 00 00    	je     2151 <move_var+0xc4e>
    1c32:	48 81 7d f8 1a a7 88 	cmpq   $0xb88a71a,-0x8(%rbp)
    1c39:	0b 
    1c3a:	0f 87 dd 50 00 00    	ja     6d1d <move_var+0x581a>
    1c40:	48 81 7d f8 13 a7 88 	cmpq   $0xb88a713,-0x8(%rbp)
    1c47:	0b 
    1c48:	0f 84 bf 04 00 00    	je     210d <move_var+0xc0a>
    1c4e:	48 81 7d f8 13 a7 88 	cmpq   $0xb88a713,-0x8(%rbp)
    1c55:	0b 
    1c56:	0f 87 c1 50 00 00    	ja     6d1d <move_var+0x581a>
    1c5c:	48 81 7d f8 33 a5 88 	cmpq   $0xb88a533,-0x8(%rbp)
    1c63:	0b 
    1c64:	0f 84 5c 04 00 00    	je     20c6 <move_var+0xbc3>
    1c6a:	48 81 7d f8 33 a5 88 	cmpq   $0xb88a533,-0x8(%rbp)
    1c71:	0b 
    1c72:	0f 87 a5 50 00 00    	ja     6d1d <move_var+0x581a>
    1c78:	48 81 7d f8 24 a5 88 	cmpq   $0xb88a524,-0x8(%rbp)
    1c7f:	0b 
    1c80:	0f 84 f9 03 00 00    	je     207f <move_var+0xb7c>
    1c86:	48 81 7d f8 24 a5 88 	cmpq   $0xb88a524,-0x8(%rbp)
    1c8d:	0b 
    1c8e:	0f 87 89 50 00 00    	ja     6d1d <move_var+0x581a>
    1c94:	48 81 7d f8 12 a5 88 	cmpq   $0xb88a512,-0x8(%rbp)
    1c9b:	0b 
    1c9c:	0f 84 96 03 00 00    	je     2038 <move_var+0xb35>
    1ca2:	48 81 7d f8 12 a5 88 	cmpq   $0xb88a512,-0x8(%rbp)
    1ca9:	0b 
    1caa:	0f 87 6d 50 00 00    	ja     6d1d <move_var+0x581a>
    1cb0:	48 81 7d f8 f1 a4 88 	cmpq   $0xb88a4f1,-0x8(%rbp)
    1cb7:	0b 
    1cb8:	0f 84 33 03 00 00    	je     1ff1 <move_var+0xaee>
    1cbe:	48 81 7d f8 f1 a4 88 	cmpq   $0xb88a4f1,-0x8(%rbp)
    1cc5:	0b 
    1cc6:	0f 87 51 50 00 00    	ja     6d1d <move_var+0x581a>
    1ccc:	48 81 7d f8 e9 a4 88 	cmpq   $0xb88a4e9,-0x8(%rbp)
    1cd3:	0b 
    1cd4:	0f 84 d0 02 00 00    	je     1faa <move_var+0xaa7>
    1cda:	48 81 7d f8 e9 a4 88 	cmpq   $0xb88a4e9,-0x8(%rbp)
    1ce1:	0b 
    1ce2:	0f 87 35 50 00 00    	ja     6d1d <move_var+0x581a>
    1ce8:	48 81 7d f8 d0 a4 88 	cmpq   $0xb88a4d0,-0x8(%rbp)
    1cef:	0b 
    1cf0:	0f 84 6d 02 00 00    	je     1f63 <move_var+0xa60>
    1cf6:	48 81 7d f8 d0 a4 88 	cmpq   $0xb88a4d0,-0x8(%rbp)
    1cfd:	0b 
    1cfe:	0f 87 19 50 00 00    	ja     6d1d <move_var+0x581a>
    1d04:	48 81 7d f8 5d 9e 88 	cmpq   $0xb889e5d,-0x8(%rbp)
    1d0b:	0b 
    1d0c:	0f 87 0b 50 00 00    	ja     6d1d <move_var+0x581a>
    1d12:	48 81 7d f8 58 9e 88 	cmpq   $0xb889e58,-0x8(%rbp)
    1d19:	0b 
    1d1a:	73 21                	jae    1d3d <move_var+0x83a>
    1d1c:	48 81 7d f8 2f 79 59 	cmpq   $0x59792f,-0x8(%rbp)
    1d23:	00 
    1d24:	0f 84 ab 01 00 00    	je     1ed5 <move_var+0x9d2>
    1d2a:	48 81 7d f8 30 79 59 	cmpq   $0x597930,-0x8(%rbp)
    1d31:	00 
    1d32:	0f 84 e4 01 00 00    	je     1f1c <move_var+0xa19>
    1d38:	e9 e0 4f 00 00       	jmp    6d1d <move_var+0x581a>
    1d3d:	48 8b 45 f8          	mov    -0x8(%rbp),%rax
    1d41:	48 2d 58 9e 88 0b    	sub    $0xb889e58,%rax
    1d47:	48 83 f8 05          	cmp    $0x5,%rax
    1d4b:	0f 87 cc 4f 00 00    	ja     6d1d <move_var+0x581a>
    1d51:	48 8d 14 85 00 00 00 	lea    0x0(,%rax,4),%rdx
    1d58:	00 
    1d59:	48 8d 05 14 53 00 00 	lea    0x5314(%rip),%rax        # 7074 <_IO_stdin_used+0x74>
    1d60:	8b 04 02             	mov    (%rdx,%rax,1),%eax
    1d63:	48 98                	cltq
    1d65:	48 8d 15 08 53 00 00 	lea    0x5308(%rip),%rdx        # 7074 <_IO_stdin_used+0x74>
    1d6c:	48 01 d0             	add    %rdx,%rax
    1d6f:	3e ff e0             	notrack jmp *%rax
    1d72:	8b 45 ec             	mov    -0x14(%rbp),%eax
    1d75:	8d 50 01             	lea    0x1(%rax),%edx
    1d78:	89 55 ec             	mov    %edx,-0x14(%rbp)
    1d7b:	48 63 d0             	movslq %eax,%rdx
    1d7e:	48 8b 45 c8          	mov    -0x38(%rbp),%rax
    1d82:	48 01 d0             	add    %rdx,%rax
    1d85:	c6 00 4d             	movb   $0x4d,(%rax)
    1d88:	8b 45 ec             	mov    -0x14(%rbp),%eax
    1d8b:	8d 50 01             	lea    0x1(%rax),%edx
    1d8e:	89 55 ec             	mov    %edx,-0x14(%rbp)
    1d91:	48 63 d0             	movslq %eax,%rdx
    1d94:	48 8b 45 c8          	mov    -0x38(%rbp),%rax
    1d98:	48 01 d0             	add    %rdx,%rax
    1d9b:	c6 00 89             	movb   $0x89,(%rax)
    1d9e:	8b 45 ec             	mov    -0x14(%rbp),%eax
    1da1:	8d 50 01             	lea    0x1(%rax),%edx
    1da4:	89 55 ec             	mov    %edx,-0x14(%rbp)
    1da7:	48 63 d0             	movslq %eax,%rdx
    1daa:	48 8b 45 c8          	mov    -0x38(%rbp),%rax
    1dae:	48 01 d0             	add    %rdx,%rax
    1db1:	c6 00 da             	movb   $0xda,(%rax)
    1db4:	e9 db 03 00 00       	jmp    2194 <move_var+0xc91>
    1db9:	8b 45 ec             	mov    -0x14(%rbp),%eax
    1dbc:	8d 50 01             	lea    0x1(%rax),%edx
    1dbf:	89 55 ec             	mov    %edx,-0x14(%rbp)
    1dc2:	48 63 d0             	movslq %eax,%rdx
    1dc5:	48 8b 45 c8          	mov    -0x38(%rbp),%rax
    1dc9:	48 01 d0             	add    %rdx,%rax
    1dcc:	c6 00 4d             	movb   $0x4d,(%rax)
    1dcf:	8b 45 ec             	mov    -0x14(%rbp),%eax
    1dd2:	8d 50 01             	lea    0x1(%rax),%edx
    1dd5:	89 55 ec             	mov    %edx,-0x14(%rbp)
    1dd8:	48 63 d0             	movslq %eax,%rdx
    1ddb:	48 8b 45 c8          	mov    -0x38(%rbp),%rax
    1ddf:	48 01 d0             	add    %rdx,%rax
    1de2:	c6 00 89             	movb   $0x89,(%rax)
    1de5:	8b 45 ec             	mov    -0x14(%rbp),%eax
    1de8:	8d 50 01             	lea    0x1(%rax),%edx
    1deb:	89 55 ec             	mov    %edx,-0x14(%rbp)
    1dee:	48 63 d0             	movslq %eax,%rdx
    1df1:	48 8b 45 c8          	mov    -0x38(%rbp),%rax
    1df5:	48 01 d0             	add    %rdx,%rax
    1df8:	c6 00 dc             	movb   $0xdc,(%rax)
    1dfb:	e9 94 03 00 00       	jmp    2194 <move_var+0xc91>
    1e00:	8b 45 ec             	mov    -0x14(%rbp),%eax
    1e03:	8d 50 01             	lea    0x1(%rax),%edx
    1e06:	89 55 ec             	mov    %edx,-0x14(%rbp)
    1e09:	48 63 d0             	movslq %eax,%rdx
    1e0c:	48 8b 45 c8          	mov    -0x38(%rbp),%rax
    1e10:	48 01 d0             	add    %rdx,%rax
    1e13:	c6 00 4d             	movb   $0x4d,(%rax)
    1e16:	8b 45 ec             	mov    -0x14(%rbp),%eax
    1e19:	8d 50 01             	lea    0x1(%rax),%edx
    1e1c:	89 55 ec             	mov    %edx,-0x14(%rbp)
    1e1f:	48 63 d0             	movslq %eax,%rdx
    1e22:	48 8b 45 c8          	mov    -0x38(%rbp),%rax
    1e26:	48 01 d0             	add    %rdx,%rax
    1e29:	c6 00 89             	movb   $0x89,(%rax)
    1e2c:	8b 45 ec             	mov    -0x14(%rbp),%eax
    1e2f:	8d 50 01             	lea    0x1(%rax),%edx
    1e32:	89 55 ec             	mov    %edx,-0x14(%rbp)
    1e35:	48 63 d0             	movslq %eax,%rdx
    1e38:	48 8b 45 c8          	mov    -0x38(%rbp),%rax
    1e3c:	48 01 d0             	add    %rdx,%rax
    1e3f:	c6 00 dd             	movb   $0xdd,(%rax)
    1e42:	e9 4d 03 00 00       	jmp    2194 <move_var+0xc91>
    1e47:	8b 45 ec             	mov    -0x14(%rbp),%eax
    1e4a:	8d 50 01             	lea    0x1(%rax),%edx
    1e4d:	89 55 ec             	mov    %edx,-0x14(%rbp)
    1e50:	48 63 d0             	movslq %eax,%rdx
    1e53:	48 8b 45 c8          	mov    -0x38(%rbp),%rax
    1e57:	48 01 d0             	add    %rdx,%rax
    1e5a:	c6 00 4d             	movb   $0x4d,(%rax)
    1e5d:	8b 45 ec             	mov    -0x14(%rbp),%eax
    1e60:	8d 50 01             	lea    0x1(%rax),%edx
    1e63:	89 55 ec             	mov    %edx,-0x14(%rbp)
    1e66:	48 63 d0             	movslq %eax,%rdx
    1e69:	48 8b 45 c8          	mov    -0x38(%rbp),%rax
    1e6d:	48 01 d0             	add    %rdx,%rax
    1e70:	c6 00 89             	movb   $0x89,(%rax)
    1e73:	8b 45 ec             	mov    -0x14(%rbp),%eax
    1e76:	8d 50 01             	lea    0x1(%rax),%edx
    1e79:	89 55 ec             	mov    %edx,-0x14(%rbp)
    1e7c:	48 63 d0             	movslq %eax,%rdx
    1e7f:	48 8b 45 c8          	mov    -0x38(%rbp),%rax
    1e83:	48 01 d0             	add    %rdx,%rax
    1e86:	c6 00 de             	movb   $0xde,(%rax)
    1e89:	e9 06 03 00 00       	jmp    2194 <move_var+0xc91>
    1e8e:	8b 45 ec             	mov    -0x14(%rbp),%eax
    1e91:	8d 50 01             	lea    0x1(%rax),%edx
    1e94:	89 55 ec             	mov    %edx,-0x14(%rbp)
    1e97:	48 63 d0             	movslq %eax,%rdx
    1e9a:	48 8b 45 c8          	mov    -0x38(%rbp),%rax
    1e9e:	48 01 d0             	add    %rdx,%rax
    1ea1:	c6 00 4d             	movb   $0x4d,(%rax)
    1ea4:	8b 45 ec             	mov    -0x14(%rbp),%eax
    1ea7:	8d 50 01             	lea    0x1(%rax),%edx
    1eaa:	89 55 ec             	mov    %edx,-0x14(%rbp)
    1ead:	48 63 d0             	movslq %eax,%rdx
    1eb0:	48 8b 45 c8          	mov    -0x38(%rbp),%rax
    1eb4:	48 01 d0             	add    %rdx,%rax
    1eb7:	c6 00 89             	movb   $0x89,(%rax)
    1eba:	8b 45 ec             	mov    -0x14(%rbp),%eax
    1ebd:	8d 50 01             	lea    0x1(%rax),%edx
    1ec0:	89 55 ec             	mov    %edx,-0x14(%rbp)
    1ec3:	48 63 d0             	movslq %eax,%rdx
    1ec6:	48 8b 45 c8          	mov    -0x38(%rbp),%rax
    1eca:	48 01 d0             	add    %rdx,%rax
    1ecd:	c6 00 df             	movb   $0xdf,(%rax)
    1ed0:	e9 bf 02 00 00       	jmp    2194 <move_var+0xc91>
    1ed5:	8b 45 ec             	mov    -0x14(%rbp),%eax
    1ed8:	8d 50 01             	lea    0x1(%rax),%edx
    1edb:	89 55 ec             	mov    %edx,-0x14(%rbp)
    1ede:	48 63 d0             	movslq %eax,%rdx
    1ee1:	48 8b 45 c8          	mov    -0x38(%rbp),%rax
    1ee5:	48 01 d0             	add    %rdx,%rax
    1ee8:	c6 00 4d             	movb   $0x4d,(%rax)
    1eeb:	8b 45 ec             	mov    -0x14(%rbp),%eax
    1eee:	8d 50 01             	lea    0x1(%rax),%edx
    1ef1:	89 55 ec             	mov    %edx,-0x14(%rbp)
    1ef4:	48 63 d0             	movslq %eax,%rdx
    1ef7:	48 8b 45 c8          	mov    -0x38(%rbp),%rax
    1efb:	48 01 d0             	add    %rdx,%rax
    1efe:	c6 00 89             	movb   $0x89,(%rax)
    1f01:	8b 45 ec             	mov    -0x14(%rbp),%eax
    1f04:	8d 50 01             	lea    0x1(%rax),%edx
    1f07:	89 55 ec             	mov    %edx,-0x14(%rbp)
    1f0a:	48 63 d0             	movslq %eax,%rdx
    1f0d:	48 8b 45 c8          	mov    -0x38(%rbp),%rax
    1f11:	48 01 d0             	add    %rdx,%rax
    1f14:	c6 00 d8             	movb   $0xd8,(%rax)
    1f17:	e9 78 02 00 00       	jmp    2194 <move_var+0xc91>
    1f1c:	8b 45 ec             	mov    -0x14(%rbp),%eax
    1f1f:	8d 50 01             	lea    0x1(%rax),%edx
    1f22:	89 55 ec             	mov    %edx,-0x14(%rbp)
    1f25:	48 63 d0             	movslq %eax,%rdx
    1f28:	48 8b 45 c8          	mov    -0x38(%rbp),%rax
    1f2c:	48 01 d0             	add    %rdx,%rax
    1f2f:	c6 00 4d             	movb   $0x4d,(%rax)
    1f32:	8b 45 ec             	mov    -0x14(%rbp),%eax
    1f35:	8d 50 01             	lea    0x1(%rax),%edx
    1f38:	89 55 ec             	mov    %edx,-0x14(%rbp)
    1f3b:	48 63 d0             	movslq %eax,%rdx
    1f3e:	48 8b 45 c8          	mov    -0x38(%rbp),%rax
    1f42:	48 01 d0             	add    %rdx,%rax
    1f45:	c6 00 89             	movb   $0x89,(%rax)
    1f48:	8b 45 ec             	mov    -0x14(%rbp),%eax
    1f4b:	8d 50 01             	lea    0x1(%rax),%edx
    1f4e:	89 55 ec             	mov    %edx,-0x14(%rbp)
    1f51:	48 63 d0             	movslq %eax,%rdx
    1f54:	48 8b 45 c8          	mov    -0x38(%rbp),%rax
    1f58:	48 01 d0             	add    %rdx,%rax
    1f5b:	c6 00 d9             	movb   $0xd9,(%rax)
    1f5e:	e9 31 02 00 00       	jmp    2194 <move_var+0xc91>
    1f63:	8b 45 ec             	mov    -0x14(%rbp),%eax
    1f66:	8d 50 01             	lea    0x1(%rax),%edx
    1f69:	89 55 ec             	mov    %edx,-0x14(%rbp)
    1f6c:	48 63 d0             	movslq %eax,%rdx
    1f6f:	48 8b 45 c8          	mov    -0x38(%rbp),%rax
    1f73:	48 01 d0             	add    %rdx,%rax
    1f76:	c6 00 4c             	movb   $0x4c,(%rax)
    1f79:	8b 45 ec             	mov    -0x14(%rbp),%eax
    1f7c:	8d 50 01             	lea    0x1(%rax),%edx
    1f7f:	89 55 ec             	mov    %edx,-0x14(%rbp)
    1f82:	48 63 d0             	movslq %eax,%rdx
    1f85:	48 8b 45 c8          	mov    -0x38(%rbp),%rax
    1f89:	48 01 d0             	add    %rdx,%rax
    1f8c:	c6 00 89             	movb   $0x89,(%rax)
    1f8f:	8b 45 ec             	mov    -0x14(%rbp),%eax
    1f92:	8d 50 01             	lea    0x1(%rax),%edx
    1f95:	89 55 ec             	mov    %edx,-0x14(%rbp)
    1f98:	48 63 d0             	movslq %eax,%rdx
    1f9b:	48 8b 45 c8          	mov    -0x38(%rbp),%rax
    1f9f:	48 01 d0             	add    %rdx,%rax
    1fa2:	c6 00 d8             	movb   $0xd8,(%rax)
    1fa5:	e9 ea 01 00 00       	jmp    2194 <move_var+0xc91>
    1faa:	8b 45 ec             	mov    -0x14(%rbp),%eax
    1fad:	8d 50 01             	lea    0x1(%rax),%edx
    1fb0:	89 55 ec             	mov    %edx,-0x14(%rbp)
    1fb3:	48 63 d0             	movslq %eax,%rdx
    1fb6:	48 8b 45 c8          	mov    -0x38(%rbp),%rax
    1fba:	48 01 d0             	add    %rdx,%rax
    1fbd:	c6 00 4c             	movb   $0x4c,(%rax)
    1fc0:	8b 45 ec             	mov    -0x14(%rbp),%eax
    1fc3:	8d 50 01             	lea    0x1(%rax),%edx
    1fc6:	89 55 ec             	mov    %edx,-0x14(%rbp)
    1fc9:	48 63 d0             	movslq %eax,%rdx
    1fcc:	48 8b 45 c8          	mov    -0x38(%rbp),%rax
    1fd0:	48 01 d0             	add    %rdx,%rax
    1fd3:	c6 00 89             	movb   $0x89,(%rax)
    1fd6:	8b 45 ec             	mov    -0x14(%rbp),%eax
    1fd9:	8d 50 01             	lea    0x1(%rax),%edx
    1fdc:	89 55 ec             	mov    %edx,-0x14(%rbp)
    1fdf:	48 63 d0             	movslq %eax,%rdx
    1fe2:	48 8b 45 c8          	mov    -0x38(%rbp),%rax
    1fe6:	48 01 d0             	add    %rdx,%rax
    1fe9:	c6 00 dd             	movb   $0xdd,(%rax)
    1fec:	e9 a3 01 00 00       	jmp    2194 <move_var+0xc91>
    1ff1:	8b 45 ec             	mov    -0x14(%rbp),%eax
    1ff4:	8d 50 01             	lea    0x1(%rax),%edx
    1ff7:	89 55 ec             	mov    %edx,-0x14(%rbp)
    1ffa:	48 63 d0             	movslq %eax,%rdx
    1ffd:	48 8b 45 c8          	mov    -0x38(%rbp),%rax
    2001:	48 01 d0             	add    %rdx,%rax
    2004:	c6 00 4c             	movb   $0x4c,(%rax)
    2007:	8b 45 ec             	mov    -0x14(%rbp),%eax
    200a:	8d 50 01             	lea    0x1(%rax),%edx
    200d:	89 55 ec             	mov    %edx,-0x14(%rbp)
    2010:	48 63 d0             	movslq %eax,%rdx
    2013:	48 8b 45 c8          	mov    -0x38(%rbp),%rax
    2017:	48 01 d0             	add    %rdx,%rax
    201a:	c6 00 89             	movb   $0x89,(%rax)
    201d:	8b 45 ec             	mov    -0x14(%rbp),%eax
    2020:	8d 50 01             	lea    0x1(%rax),%edx
    2023:	89 55 ec             	mov    %edx,-0x14(%rbp)
    2026:	48 63 d0             	movslq %eax,%rdx
    2029:	48 8b 45 c8          	mov    -0x38(%rbp),%rax
    202d:	48 01 d0             	add    %rdx,%rax
    2030:	c6 00 db             	movb   $0xdb,(%rax)
    2033:	e9 5c 01 00 00       	jmp    2194 <move_var+0xc91>
    2038:	8b 45 ec             	mov    -0x14(%rbp),%eax
    203b:	8d 50 01             	lea    0x1(%rax),%edx
    203e:	89 55 ec             	mov    %edx,-0x14(%rbp)
    2041:	48 63 d0             	movslq %eax,%rdx
    2044:	48 8b 45 c8          	mov    -0x38(%rbp),%rax
    2048:	48 01 d0             	add    %rdx,%rax
    204b:	c6 00 4c             	movb   $0x4c,(%rax)
    204e:	8b 45 ec             	mov    -0x14(%rbp),%eax
    2051:	8d 50 01             	lea    0x1(%rax),%edx
    2054:	89 55 ec             	mov    %edx,-0x14(%rbp)
    2057:	48 63 d0             	movslq %eax,%rdx
    205a:	48 8b 45 c8          	mov    -0x38(%rbp),%rax
    205e:	48 01 d0             	add    %rdx,%rax
    2061:	c6 00 89             	movb   $0x89,(%rax)
    2064:	8b 45 ec             	mov    -0x14(%rbp),%eax
    2067:	8d 50 01             	lea    0x1(%rax),%edx
    206a:	89 55 ec             	mov    %edx,-0x14(%rbp)
    206d:	48 63 d0             	movslq %eax,%rdx
    2070:	48 8b 45 c8          	mov    -0x38(%rbp),%rax
    2074:	48 01 d0             	add    %rdx,%rax
    2077:	c6 00 d9             	movb   $0xd9,(%rax)
    207a:	e9 15 01 00 00       	jmp    2194 <move_var+0xc91>
    207f:	8b 45 ec             	mov    -0x14(%rbp),%eax
    2082:	8d 50 01             	lea    0x1(%rax),%edx
    2085:	89 55 ec             	mov    %edx,-0x14(%rbp)
    2088:	48 63 d0             	movslq %eax,%rdx
    208b:	48 8b 45 c8          	mov    -0x38(%rbp),%rax
    208f:	48 01 d0             	add    %rdx,%rax
    2092:	c6 00 4c             	movb   $0x4c,(%rax)
    2095:	8b 45 ec             	mov    -0x14(%rbp),%eax
    2098:	8d 50 01             	lea    0x1(%rax),%edx
    209b:	89 55 ec             	mov    %edx,-0x14(%rbp)
    209e:	48 63 d0             	movslq %eax,%rdx
    20a1:	48 8b 45 c8          	mov    -0x38(%rbp),%rax
    20a5:	48 01 d0             	add    %rdx,%rax
    20a8:	c6 00 89             	movb   $0x89,(%rax)
    20ab:	8b 45 ec             	mov    -0x14(%rbp),%eax
    20ae:	8d 50 01             	lea    0x1(%rax),%edx
    20b1:	89 55 ec             	mov    %edx,-0x14(%rbp)
    20b4:	48 63 d0             	movslq %eax,%rdx
    20b7:	48 8b 45 c8          	mov    -0x38(%rbp),%rax
    20bb:	48 01 d0             	add    %rdx,%rax
    20be:	c6 00 df             	movb   $0xdf,(%rax)
    20c1:	e9 ce 00 00 00       	jmp    2194 <move_var+0xc91>
    20c6:	8b 45 ec             	mov    -0x14(%rbp),%eax
    20c9:	8d 50 01             	lea    0x1(%rax),%edx
    20cc:	89 55 ec             	mov    %edx,-0x14(%rbp)
    20cf:	48 63 d0             	movslq %eax,%rdx
    20d2:	48 8b 45 c8          	mov    -0x38(%rbp),%rax
    20d6:	48 01 d0             	add    %rdx,%rax
    20d9:	c6 00 4c             	movb   $0x4c,(%rax)
    20dc:	8b 45 ec             	mov    -0x14(%rbp),%eax
    20df:	8d 50 01             	lea    0x1(%rax),%edx
    20e2:	89 55 ec             	mov    %edx,-0x14(%rbp)
    20e5:	48 63 d0             	movslq %eax,%rdx
    20e8:	48 8b 45 c8          	mov    -0x38(%rbp),%rax
    20ec:	48 01 d0             	add    %rdx,%rax
    20ef:	c6 00 89             	movb   $0x89,(%rax)
    20f2:	8b 45 ec             	mov    -0x14(%rbp),%eax
    20f5:	8d 50 01             	lea    0x1(%rax),%edx
    20f8:	89 55 ec             	mov    %edx,-0x14(%rbp)
    20fb:	48 63 d0             	movslq %eax,%rdx
    20fe:	48 8b 45 c8          	mov    -0x38(%rbp),%rax
    2102:	48 01 d0             	add    %rdx,%rax
    2105:	c6 00 da             	movb   $0xda,(%rax)
    2108:	e9 87 00 00 00       	jmp    2194 <move_var+0xc91>
    210d:	8b 45 ec             	mov    -0x14(%rbp),%eax
    2110:	8d 50 01             	lea    0x1(%rax),%edx
    2113:	89 55 ec             	mov    %edx,-0x14(%rbp)
    2116:	48 63 d0             	movslq %eax,%rdx
    2119:	48 8b 45 c8          	mov    -0x38(%rbp),%rax
    211d:	48 01 d0             	add    %rdx,%rax
    2120:	c6 00 4c             	movb   $0x4c,(%rax)
    2123:	8b 45 ec             	mov    -0x14(%rbp),%eax
    2126:	8d 50 01             	lea    0x1(%rax),%edx
    2129:	89 55 ec             	mov    %edx,-0x14(%rbp)
    212c:	48 63 d0             	movslq %eax,%rdx
    212f:	48 8b 45 c8          	mov    -0x38(%rbp),%rax
    2133:	48 01 d0             	add    %rdx,%rax
    2136:	c6 00 89             	movb   $0x89,(%rax)
    2139:	8b 45 ec             	mov    -0x14(%rbp),%eax
    213c:	8d 50 01             	lea    0x1(%rax),%edx
    213f:	89 55 ec             	mov    %edx,-0x14(%rbp)
    2142:	48 63 d0             	movslq %eax,%rdx
    2145:	48 8b 45 c8          	mov    -0x38(%rbp),%rax
    2149:	48 01 d0             	add    %rdx,%rax
    214c:	c6 00 de             	movb   $0xde,(%rax)
    214f:	eb 43                	jmp    2194 <move_var+0xc91>
    2151:	8b 45 ec             	mov    -0x14(%rbp),%eax
    2154:	8d 50 01             	lea    0x1(%rax),%edx
    2157:	89 55 ec             	mov    %edx,-0x14(%rbp)
    215a:	48 63 d0             	movslq %eax,%rdx
    215d:	48 8b 45 c8          	mov    -0x38(%rbp),%rax
    2161:	48 01 d0             	add    %rdx,%rax
    2164:	c6 00 4c             	movb   $0x4c,(%rax)
    2167:	8b 45 ec             	mov    -0x14(%rbp),%eax
    216a:	8d 50 01             	lea    0x1(%rax),%edx
    216d:	89 55 ec             	mov    %edx,-0x14(%rbp)
    2170:	48 63 d0             	movslq %eax,%rdx
    2173:	48 8b 45 c8          	mov    -0x38(%rbp),%rax
    2177:	48 01 d0             	add    %rdx,%rax
    217a:	c6 00 89             	movb   $0x89,(%rax)
    217d:	8b 45 ec             	mov    -0x14(%rbp),%eax
    2180:	8d 50 01             	lea    0x1(%rax),%edx
    2183:	89 55 ec             	mov    %edx,-0x14(%rbp)
    2186:	48 63 d0             	movslq %eax,%rdx
    2189:	48 8b 45 c8          	mov    -0x38(%rbp),%rax
    218d:	48 01 d0             	add    %rdx,%rax
    2190:	c6 00 dc             	movb   $0xdc,(%rax)
    2193:	90                   	nop
    2194:	e9 84 4b 00 00       	jmp    6d1d <move_var+0x581a>
    2199:	48 81 7d f8 1a a7 88 	cmpq   $0xb88a71a,-0x8(%rbp)
    21a0:	0b 
    21a1:	0f 84 1f 05 00 00    	je     26c6 <move_var+0x11c3>
    21a7:	48 81 7d f8 1a a7 88 	cmpq   $0xb88a71a,-0x8(%rbp)
    21ae:	0b 
    21af:	0f 87 6b 4b 00 00    	ja     6d20 <move_var+0x581d>
    21b5:	48 81 7d f8 13 a7 88 	cmpq   $0xb88a713,-0x8(%rbp)
    21bc:	0b 
    21bd:	0f 84 bf 04 00 00    	je     2682 <move_var+0x117f>
    21c3:	48 81 7d f8 13 a7 88 	cmpq   $0xb88a713,-0x8(%rbp)
    21ca:	0b 
    21cb:	0f 87 4f 4b 00 00    	ja     6d20 <move_var+0x581d>
    21d1:	48 81 7d f8 33 a5 88 	cmpq   $0xb88a533,-0x8(%rbp)
    21d8:	0b 
    21d9:	0f 84 5c 04 00 00    	je     263b <move_var+0x1138>
    21df:	48 81 7d f8 33 a5 88 	cmpq   $0xb88a533,-0x8(%rbp)
    21e6:	0b 
    21e7:	0f 87 33 4b 00 00    	ja     6d20 <move_var+0x581d>
    21ed:	48 81 7d f8 24 a5 88 	cmpq   $0xb88a524,-0x8(%rbp)
    21f4:	0b 
    21f5:	0f 84 f9 03 00 00    	je     25f4 <move_var+0x10f1>
    21fb:	48 81 7d f8 24 a5 88 	cmpq   $0xb88a524,-0x8(%rbp)
    2202:	0b 
    2203:	0f 87 17 4b 00 00    	ja     6d20 <move_var+0x581d>
    2209:	48 81 7d f8 12 a5 88 	cmpq   $0xb88a512,-0x8(%rbp)
    2210:	0b 
    2211:	0f 84 96 03 00 00    	je     25ad <move_var+0x10aa>
    2217:	48 81 7d f8 12 a5 88 	cmpq   $0xb88a512,-0x8(%rbp)
    221e:	0b 
    221f:	0f 87 fb 4a 00 00    	ja     6d20 <move_var+0x581d>
    2225:	48 81 7d f8 f1 a4 88 	cmpq   $0xb88a4f1,-0x8(%rbp)
    222c:	0b 
    222d:	0f 84 33 03 00 00    	je     2566 <move_var+0x1063>
    2233:	48 81 7d f8 f1 a4 88 	cmpq   $0xb88a4f1,-0x8(%rbp)
    223a:	0b 
    223b:	0f 87 df 4a 00 00    	ja     6d20 <move_var+0x581d>
    2241:	48 81 7d f8 e9 a4 88 	cmpq   $0xb88a4e9,-0x8(%rbp)
    2248:	0b 
    2249:	0f 84 d0 02 00 00    	je     251f <move_var+0x101c>
    224f:	48 81 7d f8 e9 a4 88 	cmpq   $0xb88a4e9,-0x8(%rbp)
    2256:	0b 
    2257:	0f 87 c3 4a 00 00    	ja     6d20 <move_var+0x581d>
    225d:	48 81 7d f8 d0 a4 88 	cmpq   $0xb88a4d0,-0x8(%rbp)
    2264:	0b 
    2265:	0f 84 6d 02 00 00    	je     24d8 <move_var+0xfd5>
    226b:	48 81 7d f8 d0 a4 88 	cmpq   $0xb88a4d0,-0x8(%rbp)
    2272:	0b 
    2273:	0f 87 a7 4a 00 00    	ja     6d20 <move_var+0x581d>
    2279:	48 81 7d f8 5d 9e 88 	cmpq   $0xb889e5d,-0x8(%rbp)
    2280:	0b 
    2281:	0f 87 99 4a 00 00    	ja     6d20 <move_var+0x581d>
    2287:	48 81 7d f8 58 9e 88 	cmpq   $0xb889e58,-0x8(%rbp)
    228e:	0b 
    228f:	73 21                	jae    22b2 <move_var+0xdaf>
    2291:	48 81 7d f8 2f 79 59 	cmpq   $0x59792f,-0x8(%rbp)
    2298:	00 
    2299:	0f 84 ab 01 00 00    	je     244a <move_var+0xf47>
    229f:	48 81 7d f8 30 79 59 	cmpq   $0x597930,-0x8(%rbp)
    22a6:	00 
    22a7:	0f 84 e4 01 00 00    	je     2491 <move_var+0xf8e>
    22ad:	e9 6e 4a 00 00       	jmp    6d20 <move_var+0x581d>
    22b2:	48 8b 45 f8          	mov    -0x8(%rbp),%rax
    22b6:	48 2d 58 9e 88 0b    	sub    $0xb889e58,%rax
    22bc:	48 83 f8 05          	cmp    $0x5,%rax
    22c0:	0f 87 5a 4a 00 00    	ja     6d20 <move_var+0x581d>
    22c6:	48 8d 14 85 00 00 00 	lea    0x0(,%rax,4),%rdx
    22cd:	00 
    22ce:	48 8d 05 b7 4d 00 00 	lea    0x4db7(%rip),%rax        # 708c <_IO_stdin_used+0x8c>
    22d5:	8b 04 02             	mov    (%rdx,%rax,1),%eax
    22d8:	48 98                	cltq
    22da:	48 8d 15 ab 4d 00 00 	lea    0x4dab(%rip),%rdx        # 708c <_IO_stdin_used+0x8c>
    22e1:	48 01 d0             	add    %rdx,%rax
    22e4:	3e ff e0             	notrack jmp *%rax
    22e7:	8b 45 ec             	mov    -0x14(%rbp),%eax
    22ea:	8d 50 01             	lea    0x1(%rax),%edx
    22ed:	89 55 ec             	mov    %edx,-0x14(%rbp)
    22f0:	48 63 d0             	movslq %eax,%rdx
    22f3:	48 8b 45 c8          	mov    -0x38(%rbp),%rax
    22f7:	48 01 d0             	add    %rdx,%rax
    22fa:	c6 00 4d             	movb   $0x4d,(%rax)
    22fd:	8b 45 ec             	mov    -0x14(%rbp),%eax
    2300:	8d 50 01             	lea    0x1(%rax),%edx
    2303:	89 55 ec             	mov    %edx,-0x14(%rbp)
    2306:	48 63 d0             	movslq %eax,%rdx
    2309:	48 8b 45 c8          	mov    -0x38(%rbp),%rax
    230d:	48 01 d0             	add    %rdx,%rax
    2310:	c6 00 89             	movb   $0x89,(%rax)
    2313:	8b 45 ec             	mov    -0x14(%rbp),%eax
    2316:	8d 50 01             	lea    0x1(%rax),%edx
    2319:	89 55 ec             	mov    %edx,-0x14(%rbp)
    231c:	48 63 d0             	movslq %eax,%rdx
    231f:	48 8b 45 c8          	mov    -0x38(%rbp),%rax
    2323:	48 01 d0             	add    %rdx,%rax
    2326:	c6 00 e2             	movb   $0xe2,(%rax)
    2329:	e9 db 03 00 00       	jmp    2709 <move_var+0x1206>
    232e:	8b 45 ec             	mov    -0x14(%rbp),%eax
    2331:	8d 50 01             	lea    0x1(%rax),%edx
    2334:	89 55 ec             	mov    %edx,-0x14(%rbp)
    2337:	48 63 d0             	movslq %eax,%rdx
    233a:	48 8b 45 c8          	mov    -0x38(%rbp),%rax
    233e:	48 01 d0             	add    %rdx,%rax
    2341:	c6 00 4d             	movb   $0x4d,(%rax)
    2344:	8b 45 ec             	mov    -0x14(%rbp),%eax
    2347:	8d 50 01             	lea    0x1(%rax),%edx
    234a:	89 55 ec             	mov    %edx,-0x14(%rbp)
    234d:	48 63 d0             	movslq %eax,%rdx
    2350:	48 8b 45 c8          	mov    -0x38(%rbp),%rax
    2354:	48 01 d0             	add    %rdx,%rax
    2357:	c6 00 89             	movb   $0x89,(%rax)
    235a:	8b 45 ec             	mov    -0x14(%rbp),%eax
    235d:	8d 50 01             	lea    0x1(%rax),%edx
    2360:	89 55 ec             	mov    %edx,-0x14(%rbp)
    2363:	48 63 d0             	movslq %eax,%rdx
    2366:	48 8b 45 c8          	mov    -0x38(%rbp),%rax
    236a:	48 01 d0             	add    %rdx,%rax
    236d:	c6 00 e3             	movb   $0xe3,(%rax)
    2370:	e9 94 03 00 00       	jmp    2709 <move_var+0x1206>
    2375:	8b 45 ec             	mov    -0x14(%rbp),%eax
    2378:	8d 50 01             	lea    0x1(%rax),%edx
    237b:	89 55 ec             	mov    %edx,-0x14(%rbp)
    237e:	48 63 d0             	movslq %eax,%rdx
    2381:	48 8b 45 c8          	mov    -0x38(%rbp),%rax
    2385:	48 01 d0             	add    %rdx,%rax
    2388:	c6 00 4d             	movb   $0x4d,(%rax)
    238b:	8b 45 ec             	mov    -0x14(%rbp),%eax
    238e:	8d 50 01             	lea    0x1(%rax),%edx
    2391:	89 55 ec             	mov    %edx,-0x14(%rbp)
    2394:	48 63 d0             	movslq %eax,%rdx
    2397:	48 8b 45 c8          	mov    -0x38(%rbp),%rax
    239b:	48 01 d0             	add    %rdx,%rax
    239e:	c6 00 89             	movb   $0x89,(%rax)
    23a1:	8b 45 ec             	mov    -0x14(%rbp),%eax
    23a4:	8d 50 01             	lea    0x1(%rax),%edx
    23a7:	89 55 ec             	mov    %edx,-0x14(%rbp)
    23aa:	48 63 d0             	movslq %eax,%rdx
    23ad:	48 8b 45 c8          	mov    -0x38(%rbp),%rax
    23b1:	48 01 d0             	add    %rdx,%rax
    23b4:	c6 00 e5             	movb   $0xe5,(%rax)
    23b7:	e9 4d 03 00 00       	jmp    2709 <move_var+0x1206>
    23bc:	8b 45 ec             	mov    -0x14(%rbp),%eax
    23bf:	8d 50 01             	lea    0x1(%rax),%edx
    23c2:	89 55 ec             	mov    %edx,-0x14(%rbp)
    23c5:	48 63 d0             	movslq %eax,%rdx
    23c8:	48 8b 45 c8          	mov    -0x38(%rbp),%rax
    23cc:	48 01 d0             	add    %rdx,%rax
    23cf:	c6 00 4d             	movb   $0x4d,(%rax)
    23d2:	8b 45 ec             	mov    -0x14(%rbp),%eax
    23d5:	8d 50 01             	lea    0x1(%rax),%edx
    23d8:	89 55 ec             	mov    %edx,-0x14(%rbp)
    23db:	48 63 d0             	movslq %eax,%rdx
    23de:	48 8b 45 c8          	mov    -0x38(%rbp),%rax
    23e2:	48 01 d0             	add    %rdx,%rax
    23e5:	c6 00 89             	movb   $0x89,(%rax)
    23e8:	8b 45 ec             	mov    -0x14(%rbp),%eax
    23eb:	8d 50 01             	lea    0x1(%rax),%edx
    23ee:	89 55 ec             	mov    %edx,-0x14(%rbp)
    23f1:	48 63 d0             	movslq %eax,%rdx
    23f4:	48 8b 45 c8          	mov    -0x38(%rbp),%rax
    23f8:	48 01 d0             	add    %rdx,%rax
    23fb:	c6 00 e6             	movb   $0xe6,(%rax)
    23fe:	e9 06 03 00 00       	jmp    2709 <move_var+0x1206>
    2403:	8b 45 ec             	mov    -0x14(%rbp),%eax
    2406:	8d 50 01             	lea    0x1(%rax),%edx
    2409:	89 55 ec             	mov    %edx,-0x14(%rbp)
    240c:	48 63 d0             	movslq %eax,%rdx
    240f:	48 8b 45 c8          	mov    -0x38(%rbp),%rax
    2413:	48 01 d0             	add    %rdx,%rax
    2416:	c6 00 4d             	movb   $0x4d,(%rax)
    2419:	8b 45 ec             	mov    -0x14(%rbp),%eax
    241c:	8d 50 01             	lea    0x1(%rax),%edx
    241f:	89 55 ec             	mov    %edx,-0x14(%rbp)
    2422:	48 63 d0             	movslq %eax,%rdx
    2425:	48 8b 45 c8          	mov    -0x38(%rbp),%rax
    2429:	48 01 d0             	add    %rdx,%rax
    242c:	c6 00 89             	movb   $0x89,(%rax)
    242f:	8b 45 ec             	mov    -0x14(%rbp),%eax
    2432:	8d 50 01             	lea    0x1(%rax),%edx
    2435:	89 55 ec             	mov    %edx,-0x14(%rbp)
    2438:	48 63 d0             	movslq %eax,%rdx
    243b:	48 8b 45 c8          	mov    -0x38(%rbp),%rax
    243f:	48 01 d0             	add    %rdx,%rax
    2442:	c6 00 e7             	movb   $0xe7,(%rax)
    2445:	e9 bf 02 00 00       	jmp    2709 <move_var+0x1206>
    244a:	8b 45 ec             	mov    -0x14(%rbp),%eax
    244d:	8d 50 01             	lea    0x1(%rax),%edx
    2450:	89 55 ec             	mov    %edx,-0x14(%rbp)
    2453:	48 63 d0             	movslq %eax,%rdx
    2456:	48 8b 45 c8          	mov    -0x38(%rbp),%rax
    245a:	48 01 d0             	add    %rdx,%rax
    245d:	c6 00 4d             	movb   $0x4d,(%rax)
    2460:	8b 45 ec             	mov    -0x14(%rbp),%eax
    2463:	8d 50 01             	lea    0x1(%rax),%edx
    2466:	89 55 ec             	mov    %edx,-0x14(%rbp)
    2469:	48 63 d0             	movslq %eax,%rdx
    246c:	48 8b 45 c8          	mov    -0x38(%rbp),%rax
    2470:	48 01 d0             	add    %rdx,%rax
    2473:	c6 00 89             	movb   $0x89,(%rax)
    2476:	8b 45 ec             	mov    -0x14(%rbp),%eax
    2479:	8d 50 01             	lea    0x1(%rax),%edx
    247c:	89 55 ec             	mov    %edx,-0x14(%rbp)
    247f:	48 63 d0             	movslq %eax,%rdx
    2482:	48 8b 45 c8          	mov    -0x38(%rbp),%rax
    2486:	48 01 d0             	add    %rdx,%rax
    2489:	c6 00 e0             	movb   $0xe0,(%rax)
    248c:	e9 78 02 00 00       	jmp    2709 <move_var+0x1206>
    2491:	8b 45 ec             	mov    -0x14(%rbp),%eax
    2494:	8d 50 01             	lea    0x1(%rax),%edx
    2497:	89 55 ec             	mov    %edx,-0x14(%rbp)
    249a:	48 63 d0             	movslq %eax,%rdx
    249d:	48 8b 45 c8          	mov    -0x38(%rbp),%rax
    24a1:	48 01 d0             	add    %rdx,%rax
    24a4:	c6 00 4d             	movb   $0x4d,(%rax)
    24a7:	8b 45 ec             	mov    -0x14(%rbp),%eax
    24aa:	8d 50 01             	lea    0x1(%rax),%edx
    24ad:	89 55 ec             	mov    %edx,-0x14(%rbp)
    24b0:	48 63 d0             	movslq %eax,%rdx
    24b3:	48 8b 45 c8          	mov    -0x38(%rbp),%rax
    24b7:	48 01 d0             	add    %rdx,%rax
    24ba:	c6 00 89             	movb   $0x89,(%rax)
    24bd:	8b 45 ec             	mov    -0x14(%rbp),%eax
    24c0:	8d 50 01             	lea    0x1(%rax),%edx
    24c3:	89 55 ec             	mov    %edx,-0x14(%rbp)
    24c6:	48 63 d0             	movslq %eax,%rdx
    24c9:	48 8b 45 c8          	mov    -0x38(%rbp),%rax
    24cd:	48 01 d0             	add    %rdx,%rax
    24d0:	c6 00 e1             	movb   $0xe1,(%rax)
    24d3:	e9 31 02 00 00       	jmp    2709 <move_var+0x1206>
    24d8:	8b 45 ec             	mov    -0x14(%rbp),%eax
    24db:	8d 50 01             	lea    0x1(%rax),%edx
    24de:	89 55 ec             	mov    %edx,-0x14(%rbp)
    24e1:	48 63 d0             	movslq %eax,%rdx
    24e4:	48 8b 45 c8          	mov    -0x38(%rbp),%rax
    24e8:	48 01 d0             	add    %rdx,%rax
    24eb:	c6 00 4c             	movb   $0x4c,(%rax)
    24ee:	8b 45 ec             	mov    -0x14(%rbp),%eax
    24f1:	8d 50 01             	lea    0x1(%rax),%edx
    24f4:	89 55 ec             	mov    %edx,-0x14(%rbp)
    24f7:	48 63 d0             	movslq %eax,%rdx
    24fa:	48 8b 45 c8          	mov    -0x38(%rbp),%rax
    24fe:	48 01 d0             	add    %rdx,%rax
    2501:	c6 00 89             	movb   $0x89,(%rax)
    2504:	8b 45 ec             	mov    -0x14(%rbp),%eax
    2507:	8d 50 01             	lea    0x1(%rax),%edx
    250a:	89 55 ec             	mov    %edx,-0x14(%rbp)
    250d:	48 63 d0             	movslq %eax,%rdx
    2510:	48 8b 45 c8          	mov    -0x38(%rbp),%rax
    2514:	48 01 d0             	add    %rdx,%rax
    2517:	c6 00 e0             	movb   $0xe0,(%rax)
    251a:	e9 ea 01 00 00       	jmp    2709 <move_var+0x1206>
    251f:	8b 45 ec             	mov    -0x14(%rbp),%eax
    2522:	8d 50 01             	lea    0x1(%rax),%edx
    2525:	89 55 ec             	mov    %edx,-0x14(%rbp)
    2528:	48 63 d0             	movslq %eax,%rdx
    252b:	48 8b 45 c8          	mov    -0x38(%rbp),%rax
    252f:	48 01 d0             	add    %rdx,%rax
    2532:	c6 00 4c             	movb   $0x4c,(%rax)
    2535:	8b 45 ec             	mov    -0x14(%rbp),%eax
    2538:	8d 50 01             	lea    0x1(%rax),%edx
    253b:	89 55 ec             	mov    %edx,-0x14(%rbp)
    253e:	48 63 d0             	movslq %eax,%rdx
    2541:	48 8b 45 c8          	mov    -0x38(%rbp),%rax
    2545:	48 01 d0             	add    %rdx,%rax
    2548:	c6 00 89             	movb   $0x89,(%rax)
    254b:	8b 45 ec             	mov    -0x14(%rbp),%eax
    254e:	8d 50 01             	lea    0x1(%rax),%edx
    2551:	89 55 ec             	mov    %edx,-0x14(%rbp)
    2554:	48 63 d0             	movslq %eax,%rdx
    2557:	48 8b 45 c8          	mov    -0x38(%rbp),%rax
    255b:	48 01 d0             	add    %rdx,%rax
    255e:	c6 00 e5             	movb   $0xe5,(%rax)
    2561:	e9 a3 01 00 00       	jmp    2709 <move_var+0x1206>
    2566:	8b 45 ec             	mov    -0x14(%rbp),%eax
    2569:	8d 50 01             	lea    0x1(%rax),%edx
    256c:	89 55 ec             	mov    %edx,-0x14(%rbp)
    256f:	48 63 d0             	movslq %eax,%rdx
    2572:	48 8b 45 c8          	mov    -0x38(%rbp),%rax
    2576:	48 01 d0             	add    %rdx,%rax
    2579:	c6 00 4c             	movb   $0x4c,(%rax)
    257c:	8b 45 ec             	mov    -0x14(%rbp),%eax
    257f:	8d 50 01             	lea    0x1(%rax),%edx
    2582:	89 55 ec             	mov    %edx,-0x14(%rbp)
    2585:	48 63 d0             	movslq %eax,%rdx
    2588:	48 8b 45 c8          	mov    -0x38(%rbp),%rax
    258c:	48 01 d0             	add    %rdx,%rax
    258f:	c6 00 89             	movb   $0x89,(%rax)
    2592:	8b 45 ec             	mov    -0x14(%rbp),%eax
    2595:	8d 50 01             	lea    0x1(%rax),%edx
    2598:	89 55 ec             	mov    %edx,-0x14(%rbp)
    259b:	48 63 d0             	movslq %eax,%rdx
    259e:	48 8b 45 c8          	mov    -0x38(%rbp),%rax
    25a2:	48 01 d0             	add    %rdx,%rax
    25a5:	c6 00 e3             	movb   $0xe3,(%rax)
    25a8:	e9 5c 01 00 00       	jmp    2709 <move_var+0x1206>
    25ad:	8b 45 ec             	mov    -0x14(%rbp),%eax
    25b0:	8d 50 01             	lea    0x1(%rax),%edx
    25b3:	89 55 ec             	mov    %edx,-0x14(%rbp)
    25b6:	48 63 d0             	movslq %eax,%rdx
    25b9:	48 8b 45 c8          	mov    -0x38(%rbp),%rax
    25bd:	48 01 d0             	add    %rdx,%rax
    25c0:	c6 00 4c             	movb   $0x4c,(%rax)
    25c3:	8b 45 ec             	mov    -0x14(%rbp),%eax
    25c6:	8d 50 01             	lea    0x1(%rax),%edx
    25c9:	89 55 ec             	mov    %edx,-0x14(%rbp)
    25cc:	48 63 d0             	movslq %eax,%rdx
    25cf:	48 8b 45 c8          	mov    -0x38(%rbp),%rax
    25d3:	48 01 d0             	add    %rdx,%rax
    25d6:	c6 00 89             	movb   $0x89,(%rax)
    25d9:	8b 45 ec             	mov    -0x14(%rbp),%eax
    25dc:	8d 50 01             	lea    0x1(%rax),%edx
    25df:	89 55 ec             	mov    %edx,-0x14(%rbp)
    25e2:	48 63 d0             	movslq %eax,%rdx
    25e5:	48 8b 45 c8          	mov    -0x38(%rbp),%rax
    25e9:	48 01 d0             	add    %rdx,%rax
    25ec:	c6 00 e1             	movb   $0xe1,(%rax)
    25ef:	e9 15 01 00 00       	jmp    2709 <move_var+0x1206>
    25f4:	8b 45 ec             	mov    -0x14(%rbp),%eax
    25f7:	8d 50 01             	lea    0x1(%rax),%edx
    25fa:	89 55 ec             	mov    %edx,-0x14(%rbp)
    25fd:	48 63 d0             	movslq %eax,%rdx
    2600:	48 8b 45 c8          	mov    -0x38(%rbp),%rax
    2604:	48 01 d0             	add    %rdx,%rax
    2607:	c6 00 4c             	movb   $0x4c,(%rax)
    260a:	8b 45 ec             	mov    -0x14(%rbp),%eax
    260d:	8d 50 01             	lea    0x1(%rax),%edx
    2610:	89 55 ec             	mov    %edx,-0x14(%rbp)
    2613:	48 63 d0             	movslq %eax,%rdx
    2616:	48 8b 45 c8          	mov    -0x38(%rbp),%rax
    261a:	48 01 d0             	add    %rdx,%rax
    261d:	c6 00 89             	movb   $0x89,(%rax)
    2620:	8b 45 ec             	mov    -0x14(%rbp),%eax
    2623:	8d 50 01             	lea    0x1(%rax),%edx
    2626:	89 55 ec             	mov    %edx,-0x14(%rbp)
    2629:	48 63 d0             	movslq %eax,%rdx
    262c:	48 8b 45 c8          	mov    -0x38(%rbp),%rax
    2630:	48 01 d0             	add    %rdx,%rax
    2633:	c6 00 e7             	movb   $0xe7,(%rax)
    2636:	e9 ce 00 00 00       	jmp    2709 <move_var+0x1206>
    263b:	8b 45 ec             	mov    -0x14(%rbp),%eax
    263e:	8d 50 01             	lea    0x1(%rax),%edx
    2641:	89 55 ec             	mov    %edx,-0x14(%rbp)
    2644:	48 63 d0             	movslq %eax,%rdx
    2647:	48 8b 45 c8          	mov    -0x38(%rbp),%rax
    264b:	48 01 d0             	add    %rdx,%rax
    264e:	c6 00 4c             	movb   $0x4c,(%rax)
    2651:	8b 45 ec             	mov    -0x14(%rbp),%eax
    2654:	8d 50 01             	lea    0x1(%rax),%edx
    2657:	89 55 ec             	mov    %edx,-0x14(%rbp)
    265a:	48 63 d0             	movslq %eax,%rdx
    265d:	48 8b 45 c8          	mov    -0x38(%rbp),%rax
    2661:	48 01 d0             	add    %rdx,%rax
    2664:	c6 00 89             	movb   $0x89,(%rax)
    2667:	8b 45 ec             	mov    -0x14(%rbp),%eax
    266a:	8d 50 01             	lea    0x1(%rax),%edx
    266d:	89 55 ec             	mov    %edx,-0x14(%rbp)
    2670:	48 63 d0             	movslq %eax,%rdx
    2673:	48 8b 45 c8          	mov    -0x38(%rbp),%rax
    2677:	48 01 d0             	add    %rdx,%rax
    267a:	c6 00 e2             	movb   $0xe2,(%rax)
    267d:	e9 87 00 00 00       	jmp    2709 <move_var+0x1206>
    2682:	8b 45 ec             	mov    -0x14(%rbp),%eax
    2685:	8d 50 01             	lea    0x1(%rax),%edx
    2688:	89 55 ec             	mov    %edx,-0x14(%rbp)
    268b:	48 63 d0             	movslq %eax,%rdx
    268e:	48 8b 45 c8          	mov    -0x38(%rbp),%rax
    2692:	48 01 d0             	add    %rdx,%rax
    2695:	c6 00 4c             	movb   $0x4c,(%rax)
    2698:	8b 45 ec             	mov    -0x14(%rbp),%eax
    269b:	8d 50 01             	lea    0x1(%rax),%edx
    269e:	89 55 ec             	mov    %edx,-0x14(%rbp)
    26a1:	48 63 d0             	movslq %eax,%rdx
    26a4:	48 8b 45 c8          	mov    -0x38(%rbp),%rax
    26a8:	48 01 d0             	add    %rdx,%rax
    26ab:	c6 00 89             	movb   $0x89,(%rax)
    26ae:	8b 45 ec             	mov    -0x14(%rbp),%eax
    26b1:	8d 50 01             	lea    0x1(%rax),%edx
    26b4:	89 55 ec             	mov    %edx,-0x14(%rbp)
    26b7:	48 63 d0             	movslq %eax,%rdx
    26ba:	48 8b 45 c8          	mov    -0x38(%rbp),%rax
    26be:	48 01 d0             	add    %rdx,%rax
    26c1:	c6 00 e6             	movb   $0xe6,(%rax)
    26c4:	eb 43                	jmp    2709 <move_var+0x1206>
    26c6:	8b 45 ec             	mov    -0x14(%rbp),%eax
    26c9:	8d 50 01             	lea    0x1(%rax),%edx
    26cc:	89 55 ec             	mov    %edx,-0x14(%rbp)
    26cf:	48 63 d0             	movslq %eax,%rdx
    26d2:	48 8b 45 c8          	mov    -0x38(%rbp),%rax
    26d6:	48 01 d0             	add    %rdx,%rax
    26d9:	c6 00 4c             	movb   $0x4c,(%rax)
    26dc:	8b 45 ec             	mov    -0x14(%rbp),%eax
    26df:	8d 50 01             	lea    0x1(%rax),%edx
    26e2:	89 55 ec             	mov    %edx,-0x14(%rbp)
    26e5:	48 63 d0             	movslq %eax,%rdx
    26e8:	48 8b 45 c8          	mov    -0x38(%rbp),%rax
    26ec:	48 01 d0             	add    %rdx,%rax
    26ef:	c6 00 89             	movb   $0x89,(%rax)
    26f2:	8b 45 ec             	mov    -0x14(%rbp),%eax
    26f5:	8d 50 01             	lea    0x1(%rax),%edx
    26f8:	89 55 ec             	mov    %edx,-0x14(%rbp)
    26fb:	48 63 d0             	movslq %eax,%rdx
    26fe:	48 8b 45 c8          	mov    -0x38(%rbp),%rax
    2702:	48 01 d0             	add    %rdx,%rax
    2705:	c6 00 e4             	movb   $0xe4,(%rax)
    2708:	90                   	nop
    2709:	e9 12 46 00 00       	jmp    6d20 <move_var+0x581d>
    270e:	48 81 7d f8 1a a7 88 	cmpq   $0xb88a71a,-0x8(%rbp)
    2715:	0b 
    2716:	0f 84 1f 05 00 00    	je     2c3b <move_var+0x1738>
    271c:	48 81 7d f8 1a a7 88 	cmpq   $0xb88a71a,-0x8(%rbp)
    2723:	0b 
    2724:	0f 87 f9 45 00 00    	ja     6d23 <move_var+0x5820>
    272a:	48 81 7d f8 13 a7 88 	cmpq   $0xb88a713,-0x8(%rbp)
    2731:	0b 
    2732:	0f 84 bf 04 00 00    	je     2bf7 <move_var+0x16f4>
    2738:	48 81 7d f8 13 a7 88 	cmpq   $0xb88a713,-0x8(%rbp)
    273f:	0b 
    2740:	0f 87 dd 45 00 00    	ja     6d23 <move_var+0x5820>
    2746:	48 81 7d f8 33 a5 88 	cmpq   $0xb88a533,-0x8(%rbp)
    274d:	0b 
    274e:	0f 84 5c 04 00 00    	je     2bb0 <move_var+0x16ad>
    2754:	48 81 7d f8 33 a5 88 	cmpq   $0xb88a533,-0x8(%rbp)
    275b:	0b 
    275c:	0f 87 c1 45 00 00    	ja     6d23 <move_var+0x5820>
    2762:	48 81 7d f8 24 a5 88 	cmpq   $0xb88a524,-0x8(%rbp)
    2769:	0b 
    276a:	0f 84 f9 03 00 00    	je     2b69 <move_var+0x1666>
    2770:	48 81 7d f8 24 a5 88 	cmpq   $0xb88a524,-0x8(%rbp)
    2777:	0b 
    2778:	0f 87 a5 45 00 00    	ja     6d23 <move_var+0x5820>
    277e:	48 81 7d f8 12 a5 88 	cmpq   $0xb88a512,-0x8(%rbp)
    2785:	0b 
    2786:	0f 84 96 03 00 00    	je     2b22 <move_var+0x161f>
    278c:	48 81 7d f8 12 a5 88 	cmpq   $0xb88a512,-0x8(%rbp)
    2793:	0b 
    2794:	0f 87 89 45 00 00    	ja     6d23 <move_var+0x5820>
    279a:	48 81 7d f8 f1 a4 88 	cmpq   $0xb88a4f1,-0x8(%rbp)
    27a1:	0b 
    27a2:	0f 84 33 03 00 00    	je     2adb <move_var+0x15d8>
    27a8:	48 81 7d f8 f1 a4 88 	cmpq   $0xb88a4f1,-0x8(%rbp)
    27af:	0b 
    27b0:	0f 87 6d 45 00 00    	ja     6d23 <move_var+0x5820>
    27b6:	48 81 7d f8 e9 a4 88 	cmpq   $0xb88a4e9,-0x8(%rbp)
    27bd:	0b 
    27be:	0f 84 d0 02 00 00    	je     2a94 <move_var+0x1591>
    27c4:	48 81 7d f8 e9 a4 88 	cmpq   $0xb88a4e9,-0x8(%rbp)
    27cb:	0b 
    27cc:	0f 87 51 45 00 00    	ja     6d23 <move_var+0x5820>
    27d2:	48 81 7d f8 d0 a4 88 	cmpq   $0xb88a4d0,-0x8(%rbp)
    27d9:	0b 
    27da:	0f 84 6d 02 00 00    	je     2a4d <move_var+0x154a>
    27e0:	48 81 7d f8 d0 a4 88 	cmpq   $0xb88a4d0,-0x8(%rbp)
    27e7:	0b 
    27e8:	0f 87 35 45 00 00    	ja     6d23 <move_var+0x5820>
    27ee:	48 81 7d f8 5d 9e 88 	cmpq   $0xb889e5d,-0x8(%rbp)
    27f5:	0b 
    27f6:	0f 87 27 45 00 00    	ja     6d23 <move_var+0x5820>
    27fc:	48 81 7d f8 58 9e 88 	cmpq   $0xb889e58,-0x8(%rbp)
    2803:	0b 
    2804:	73 21                	jae    2827 <move_var+0x1324>
    2806:	48 81 7d f8 2f 79 59 	cmpq   $0x59792f,-0x8(%rbp)
    280d:	00 
    280e:	0f 84 ab 01 00 00    	je     29bf <move_var+0x14bc>
    2814:	48 81 7d f8 30 79 59 	cmpq   $0x597930,-0x8(%rbp)
    281b:	00 
    281c:	0f 84 e4 01 00 00    	je     2a06 <move_var+0x1503>
    2822:	e9 fc 44 00 00       	jmp    6d23 <move_var+0x5820>
    2827:	48 8b 45 f8          	mov    -0x8(%rbp),%rax
    282b:	48 2d 58 9e 88 0b    	sub    $0xb889e58,%rax
    2831:	48 83 f8 05          	cmp    $0x5,%rax
    2835:	0f 87 e8 44 00 00    	ja     6d23 <move_var+0x5820>
    283b:	48 8d 14 85 00 00 00 	lea    0x0(,%rax,4),%rdx
    2842:	00 
    2843:	48 8d 05 5a 48 00 00 	lea    0x485a(%rip),%rax        # 70a4 <_IO_stdin_used+0xa4>
    284a:	8b 04 02             	mov    (%rdx,%rax,1),%eax
    284d:	48 98                	cltq
    284f:	48 8d 15 4e 48 00 00 	lea    0x484e(%rip),%rdx        # 70a4 <_IO_stdin_used+0xa4>
    2856:	48 01 d0             	add    %rdx,%rax
    2859:	3e ff e0             	notrack jmp *%rax
    285c:	8b 45 ec             	mov    -0x14(%rbp),%eax
    285f:	8d 50 01             	lea    0x1(%rax),%edx
    2862:	89 55 ec             	mov    %edx,-0x14(%rbp)
    2865:	48 63 d0             	movslq %eax,%rdx
    2868:	48 8b 45 c8          	mov    -0x38(%rbp),%rax
    286c:	48 01 d0             	add    %rdx,%rax
    286f:	c6 00 4d             	movb   $0x4d,(%rax)
    2872:	8b 45 ec             	mov    -0x14(%rbp),%eax
    2875:	8d 50 01             	lea    0x1(%rax),%edx
    2878:	89 55 ec             	mov    %edx,-0x14(%rbp)
    287b:	48 63 d0             	movslq %eax,%rdx
    287e:	48 8b 45 c8          	mov    -0x38(%rbp),%rax
    2882:	48 01 d0             	add    %rdx,%rax
    2885:	c6 00 89             	movb   $0x89,(%rax)
    2888:	8b 45 ec             	mov    -0x14(%rbp),%eax
    288b:	8d 50 01             	lea    0x1(%rax),%edx
    288e:	89 55 ec             	mov    %edx,-0x14(%rbp)
    2891:	48 63 d0             	movslq %eax,%rdx
    2894:	48 8b 45 c8          	mov    -0x38(%rbp),%rax
    2898:	48 01 d0             	add    %rdx,%rax
    289b:	c6 00 ea             	movb   $0xea,(%rax)
    289e:	e9 db 03 00 00       	jmp    2c7e <move_var+0x177b>
    28a3:	8b 45 ec             	mov    -0x14(%rbp),%eax
    28a6:	8d 50 01             	lea    0x1(%rax),%edx
    28a9:	89 55 ec             	mov    %edx,-0x14(%rbp)
    28ac:	48 63 d0             	movslq %eax,%rdx
    28af:	48 8b 45 c8          	mov    -0x38(%rbp),%rax
    28b3:	48 01 d0             	add    %rdx,%rax
    28b6:	c6 00 4d             	movb   $0x4d,(%rax)
    28b9:	8b 45 ec             	mov    -0x14(%rbp),%eax
    28bc:	8d 50 01             	lea    0x1(%rax),%edx
    28bf:	89 55 ec             	mov    %edx,-0x14(%rbp)
    28c2:	48 63 d0             	movslq %eax,%rdx
    28c5:	48 8b 45 c8          	mov    -0x38(%rbp),%rax
    28c9:	48 01 d0             	add    %rdx,%rax
    28cc:	c6 00 89             	movb   $0x89,(%rax)
    28cf:	8b 45 ec             	mov    -0x14(%rbp),%eax
    28d2:	8d 50 01             	lea    0x1(%rax),%edx
    28d5:	89 55 ec             	mov    %edx,-0x14(%rbp)
    28d8:	48 63 d0             	movslq %eax,%rdx
    28db:	48 8b 45 c8          	mov    -0x38(%rbp),%rax
    28df:	48 01 d0             	add    %rdx,%rax
    28e2:	c6 00 eb             	movb   $0xeb,(%rax)
    28e5:	e9 94 03 00 00       	jmp    2c7e <move_var+0x177b>
    28ea:	8b 45 ec             	mov    -0x14(%rbp),%eax
    28ed:	8d 50 01             	lea    0x1(%rax),%edx
    28f0:	89 55 ec             	mov    %edx,-0x14(%rbp)
    28f3:	48 63 d0             	movslq %eax,%rdx
    28f6:	48 8b 45 c8          	mov    -0x38(%rbp),%rax
    28fa:	48 01 d0             	add    %rdx,%rax
    28fd:	c6 00 4d             	movb   $0x4d,(%rax)
    2900:	8b 45 ec             	mov    -0x14(%rbp),%eax
    2903:	8d 50 01             	lea    0x1(%rax),%edx
    2906:	89 55 ec             	mov    %edx,-0x14(%rbp)
    2909:	48 63 d0             	movslq %eax,%rdx
    290c:	48 8b 45 c8          	mov    -0x38(%rbp),%rax
    2910:	48 01 d0             	add    %rdx,%rax
    2913:	c6 00 89             	movb   $0x89,(%rax)
    2916:	8b 45 ec             	mov    -0x14(%rbp),%eax
    2919:	8d 50 01             	lea    0x1(%rax),%edx
    291c:	89 55 ec             	mov    %edx,-0x14(%rbp)
    291f:	48 63 d0             	movslq %eax,%rdx
    2922:	48 8b 45 c8          	mov    -0x38(%rbp),%rax
    2926:	48 01 d0             	add    %rdx,%rax
    2929:	c6 00 ec             	movb   $0xec,(%rax)
    292c:	e9 4d 03 00 00       	jmp    2c7e <move_var+0x177b>
    2931:	8b 45 ec             	mov    -0x14(%rbp),%eax
    2934:	8d 50 01             	lea    0x1(%rax),%edx
    2937:	89 55 ec             	mov    %edx,-0x14(%rbp)
    293a:	48 63 d0             	movslq %eax,%rdx
    293d:	48 8b 45 c8          	mov    -0x38(%rbp),%rax
    2941:	48 01 d0             	add    %rdx,%rax
    2944:	c6 00 4d             	movb   $0x4d,(%rax)
    2947:	8b 45 ec             	mov    -0x14(%rbp),%eax
    294a:	8d 50 01             	lea    0x1(%rax),%edx
    294d:	89 55 ec             	mov    %edx,-0x14(%rbp)
    2950:	48 63 d0             	movslq %eax,%rdx
    2953:	48 8b 45 c8          	mov    -0x38(%rbp),%rax
    2957:	48 01 d0             	add    %rdx,%rax
    295a:	c6 00 89             	movb   $0x89,(%rax)
    295d:	8b 45 ec             	mov    -0x14(%rbp),%eax
    2960:	8d 50 01             	lea    0x1(%rax),%edx
    2963:	89 55 ec             	mov    %edx,-0x14(%rbp)
    2966:	48 63 d0             	movslq %eax,%rdx
    2969:	48 8b 45 c8          	mov    -0x38(%rbp),%rax
    296d:	48 01 d0             	add    %rdx,%rax
    2970:	c6 00 ee             	movb   $0xee,(%rax)
    2973:	e9 06 03 00 00       	jmp    2c7e <move_var+0x177b>
    2978:	8b 45 ec             	mov    -0x14(%rbp),%eax
    297b:	8d 50 01             	lea    0x1(%rax),%edx
    297e:	89 55 ec             	mov    %edx,-0x14(%rbp)
    2981:	48 63 d0             	movslq %eax,%rdx
    2984:	48 8b 45 c8          	mov    -0x38(%rbp),%rax
    2988:	48 01 d0             	add    %rdx,%rax
    298b:	c6 00 4d             	movb   $0x4d,(%rax)
    298e:	8b 45 ec             	mov    -0x14(%rbp),%eax
    2991:	8d 50 01             	lea    0x1(%rax),%edx
    2994:	89 55 ec             	mov    %edx,-0x14(%rbp)
    2997:	48 63 d0             	movslq %eax,%rdx
    299a:	48 8b 45 c8          	mov    -0x38(%rbp),%rax
    299e:	48 01 d0             	add    %rdx,%rax
    29a1:	c6 00 89             	movb   $0x89,(%rax)
    29a4:	8b 45 ec             	mov    -0x14(%rbp),%eax
    29a7:	8d 50 01             	lea    0x1(%rax),%edx
    29aa:	89 55 ec             	mov    %edx,-0x14(%rbp)
    29ad:	48 63 d0             	movslq %eax,%rdx
    29b0:	48 8b 45 c8          	mov    -0x38(%rbp),%rax
    29b4:	48 01 d0             	add    %rdx,%rax
    29b7:	c6 00 ef             	movb   $0xef,(%rax)
    29ba:	e9 bf 02 00 00       	jmp    2c7e <move_var+0x177b>
    29bf:	8b 45 ec             	mov    -0x14(%rbp),%eax
    29c2:	8d 50 01             	lea    0x1(%rax),%edx
    29c5:	89 55 ec             	mov    %edx,-0x14(%rbp)
    29c8:	48 63 d0             	movslq %eax,%rdx
    29cb:	48 8b 45 c8          	mov    -0x38(%rbp),%rax
    29cf:	48 01 d0             	add    %rdx,%rax
    29d2:	c6 00 4d             	movb   $0x4d,(%rax)
    29d5:	8b 45 ec             	mov    -0x14(%rbp),%eax
    29d8:	8d 50 01             	lea    0x1(%rax),%edx
    29db:	89 55 ec             	mov    %edx,-0x14(%rbp)
    29de:	48 63 d0             	movslq %eax,%rdx
    29e1:	48 8b 45 c8          	mov    -0x38(%rbp),%rax
    29e5:	48 01 d0             	add    %rdx,%rax
    29e8:	c6 00 89             	movb   $0x89,(%rax)
    29eb:	8b 45 ec             	mov    -0x14(%rbp),%eax
    29ee:	8d 50 01             	lea    0x1(%rax),%edx
    29f1:	89 55 ec             	mov    %edx,-0x14(%rbp)
    29f4:	48 63 d0             	movslq %eax,%rdx
    29f7:	48 8b 45 c8          	mov    -0x38(%rbp),%rax
    29fb:	48 01 d0             	add    %rdx,%rax
    29fe:	c6 00 e8             	movb   $0xe8,(%rax)
    2a01:	e9 78 02 00 00       	jmp    2c7e <move_var+0x177b>
    2a06:	8b 45 ec             	mov    -0x14(%rbp),%eax
    2a09:	8d 50 01             	lea    0x1(%rax),%edx
    2a0c:	89 55 ec             	mov    %edx,-0x14(%rbp)
    2a0f:	48 63 d0             	movslq %eax,%rdx
    2a12:	48 8b 45 c8          	mov    -0x38(%rbp),%rax
    2a16:	48 01 d0             	add    %rdx,%rax
    2a19:	c6 00 4d             	movb   $0x4d,(%rax)
    2a1c:	8b 45 ec             	mov    -0x14(%rbp),%eax
    2a1f:	8d 50 01             	lea    0x1(%rax),%edx
    2a22:	89 55 ec             	mov    %edx,-0x14(%rbp)
    2a25:	48 63 d0             	movslq %eax,%rdx
    2a28:	48 8b 45 c8          	mov    -0x38(%rbp),%rax
    2a2c:	48 01 d0             	add    %rdx,%rax
    2a2f:	c6 00 89             	movb   $0x89,(%rax)
    2a32:	8b 45 ec             	mov    -0x14(%rbp),%eax
    2a35:	8d 50 01             	lea    0x1(%rax),%edx
    2a38:	89 55 ec             	mov    %edx,-0x14(%rbp)
    2a3b:	48 63 d0             	movslq %eax,%rdx
    2a3e:	48 8b 45 c8          	mov    -0x38(%rbp),%rax
    2a42:	48 01 d0             	add    %rdx,%rax
    2a45:	c6 00 e9             	movb   $0xe9,(%rax)
    2a48:	e9 31 02 00 00       	jmp    2c7e <move_var+0x177b>
    2a4d:	8b 45 ec             	mov    -0x14(%rbp),%eax
    2a50:	8d 50 01             	lea    0x1(%rax),%edx
    2a53:	89 55 ec             	mov    %edx,-0x14(%rbp)
    2a56:	48 63 d0             	movslq %eax,%rdx
    2a59:	48 8b 45 c8          	mov    -0x38(%rbp),%rax
    2a5d:	48 01 d0             	add    %rdx,%rax
    2a60:	c6 00 4c             	movb   $0x4c,(%rax)
    2a63:	8b 45 ec             	mov    -0x14(%rbp),%eax
    2a66:	8d 50 01             	lea    0x1(%rax),%edx
    2a69:	89 55 ec             	mov    %edx,-0x14(%rbp)
    2a6c:	48 63 d0             	movslq %eax,%rdx
    2a6f:	48 8b 45 c8          	mov    -0x38(%rbp),%rax
    2a73:	48 01 d0             	add    %rdx,%rax
    2a76:	c6 00 89             	movb   $0x89,(%rax)
    2a79:	8b 45 ec             	mov    -0x14(%rbp),%eax
    2a7c:	8d 50 01             	lea    0x1(%rax),%edx
    2a7f:	89 55 ec             	mov    %edx,-0x14(%rbp)
    2a82:	48 63 d0             	movslq %eax,%rdx
    2a85:	48 8b 45 c8          	mov    -0x38(%rbp),%rax
    2a89:	48 01 d0             	add    %rdx,%rax
    2a8c:	c6 00 e8             	movb   $0xe8,(%rax)
    2a8f:	e9 ea 01 00 00       	jmp    2c7e <move_var+0x177b>
    2a94:	8b 45 ec             	mov    -0x14(%rbp),%eax
    2a97:	8d 50 01             	lea    0x1(%rax),%edx
    2a9a:	89 55 ec             	mov    %edx,-0x14(%rbp)
    2a9d:	48 63 d0             	movslq %eax,%rdx
    2aa0:	48 8b 45 c8          	mov    -0x38(%rbp),%rax
    2aa4:	48 01 d0             	add    %rdx,%rax
    2aa7:	c6 00 4c             	movb   $0x4c,(%rax)
    2aaa:	8b 45 ec             	mov    -0x14(%rbp),%eax
    2aad:	8d 50 01             	lea    0x1(%rax),%edx
    2ab0:	89 55 ec             	mov    %edx,-0x14(%rbp)
    2ab3:	48 63 d0             	movslq %eax,%rdx
    2ab6:	48 8b 45 c8          	mov    -0x38(%rbp),%rax
    2aba:	48 01 d0             	add    %rdx,%rax
    2abd:	c6 00 89             	movb   $0x89,(%rax)
    2ac0:	8b 45 ec             	mov    -0x14(%rbp),%eax
    2ac3:	8d 50 01             	lea    0x1(%rax),%edx
    2ac6:	89 55 ec             	mov    %edx,-0x14(%rbp)
    2ac9:	48 63 d0             	movslq %eax,%rdx
    2acc:	48 8b 45 c8          	mov    -0x38(%rbp),%rax
    2ad0:	48 01 d0             	add    %rdx,%rax
    2ad3:	c6 00 ed             	movb   $0xed,(%rax)
    2ad6:	e9 a3 01 00 00       	jmp    2c7e <move_var+0x177b>
    2adb:	8b 45 ec             	mov    -0x14(%rbp),%eax
    2ade:	8d 50 01             	lea    0x1(%rax),%edx
    2ae1:	89 55 ec             	mov    %edx,-0x14(%rbp)
    2ae4:	48 63 d0             	movslq %eax,%rdx
    2ae7:	48 8b 45 c8          	mov    -0x38(%rbp),%rax
    2aeb:	48 01 d0             	add    %rdx,%rax
    2aee:	c6 00 4c             	movb   $0x4c,(%rax)
    2af1:	8b 45 ec             	mov    -0x14(%rbp),%eax
    2af4:	8d 50 01             	lea    0x1(%rax),%edx
    2af7:	89 55 ec             	mov    %edx,-0x14(%rbp)
    2afa:	48 63 d0             	movslq %eax,%rdx
    2afd:	48 8b 45 c8          	mov    -0x38(%rbp),%rax
    2b01:	48 01 d0             	add    %rdx,%rax
    2b04:	c6 00 89             	movb   $0x89,(%rax)
    2b07:	8b 45 ec             	mov    -0x14(%rbp),%eax
    2b0a:	8d 50 01             	lea    0x1(%rax),%edx
    2b0d:	89 55 ec             	mov    %edx,-0x14(%rbp)
    2b10:	48 63 d0             	movslq %eax,%rdx
    2b13:	48 8b 45 c8          	mov    -0x38(%rbp),%rax
    2b17:	48 01 d0             	add    %rdx,%rax
    2b1a:	c6 00 eb             	movb   $0xeb,(%rax)
    2b1d:	e9 5c 01 00 00       	jmp    2c7e <move_var+0x177b>
    2b22:	8b 45 ec             	mov    -0x14(%rbp),%eax
    2b25:	8d 50 01             	lea    0x1(%rax),%edx
    2b28:	89 55 ec             	mov    %edx,-0x14(%rbp)
    2b2b:	48 63 d0             	movslq %eax,%rdx
    2b2e:	48 8b 45 c8          	mov    -0x38(%rbp),%rax
    2b32:	48 01 d0             	add    %rdx,%rax
    2b35:	c6 00 4c             	movb   $0x4c,(%rax)
    2b38:	8b 45 ec             	mov    -0x14(%rbp),%eax
    2b3b:	8d 50 01             	lea    0x1(%rax),%edx
    2b3e:	89 55 ec             	mov    %edx,-0x14(%rbp)
    2b41:	48 63 d0             	movslq %eax,%rdx
    2b44:	48 8b 45 c8          	mov    -0x38(%rbp),%rax
    2b48:	48 01 d0             	add    %rdx,%rax
    2b4b:	c6 00 89             	movb   $0x89,(%rax)
    2b4e:	8b 45 ec             	mov    -0x14(%rbp),%eax
    2b51:	8d 50 01             	lea    0x1(%rax),%edx
    2b54:	89 55 ec             	mov    %edx,-0x14(%rbp)
    2b57:	48 63 d0             	movslq %eax,%rdx
    2b5a:	48 8b 45 c8          	mov    -0x38(%rbp),%rax
    2b5e:	48 01 d0             	add    %rdx,%rax
    2b61:	c6 00 e9             	movb   $0xe9,(%rax)
    2b64:	e9 15 01 00 00       	jmp    2c7e <move_var+0x177b>
    2b69:	8b 45 ec             	mov    -0x14(%rbp),%eax
    2b6c:	8d 50 01             	lea    0x1(%rax),%edx
    2b6f:	89 55 ec             	mov    %edx,-0x14(%rbp)
    2b72:	48 63 d0             	movslq %eax,%rdx
    2b75:	48 8b 45 c8          	mov    -0x38(%rbp),%rax
    2b79:	48 01 d0             	add    %rdx,%rax
    2b7c:	c6 00 4c             	movb   $0x4c,(%rax)
    2b7f:	8b 45 ec             	mov    -0x14(%rbp),%eax
    2b82:	8d 50 01             	lea    0x1(%rax),%edx
    2b85:	89 55 ec             	mov    %edx,-0x14(%rbp)
    2b88:	48 63 d0             	movslq %eax,%rdx
    2b8b:	48 8b 45 c8          	mov    -0x38(%rbp),%rax
    2b8f:	48 01 d0             	add    %rdx,%rax
    2b92:	c6 00 89             	movb   $0x89,(%rax)
    2b95:	8b 45 ec             	mov    -0x14(%rbp),%eax
    2b98:	8d 50 01             	lea    0x1(%rax),%edx
    2b9b:	89 55 ec             	mov    %edx,-0x14(%rbp)
    2b9e:	48 63 d0             	movslq %eax,%rdx
    2ba1:	48 8b 45 c8          	mov    -0x38(%rbp),%rax
    2ba5:	48 01 d0             	add    %rdx,%rax
    2ba8:	c6 00 ef             	movb   $0xef,(%rax)
    2bab:	e9 ce 00 00 00       	jmp    2c7e <move_var+0x177b>
    2bb0:	8b 45 ec             	mov    -0x14(%rbp),%eax
    2bb3:	8d 50 01             	lea    0x1(%rax),%edx
    2bb6:	89 55 ec             	mov    %edx,-0x14(%rbp)
    2bb9:	48 63 d0             	movslq %eax,%rdx
    2bbc:	48 8b 45 c8          	mov    -0x38(%rbp),%rax
    2bc0:	48 01 d0             	add    %rdx,%rax
    2bc3:	c6 00 4c             	movb   $0x4c,(%rax)
    2bc6:	8b 45 ec             	mov    -0x14(%rbp),%eax
    2bc9:	8d 50 01             	lea    0x1(%rax),%edx
    2bcc:	89 55 ec             	mov    %edx,-0x14(%rbp)
    2bcf:	48 63 d0             	movslq %eax,%rdx
    2bd2:	48 8b 45 c8          	mov    -0x38(%rbp),%rax
    2bd6:	48 01 d0             	add    %rdx,%rax
    2bd9:	c6 00 89             	movb   $0x89,(%rax)
    2bdc:	8b 45 ec             	mov    -0x14(%rbp),%eax
    2bdf:	8d 50 01             	lea    0x1(%rax),%edx
    2be2:	89 55 ec             	mov    %edx,-0x14(%rbp)
    2be5:	48 63 d0             	movslq %eax,%rdx
    2be8:	48 8b 45 c8          	mov    -0x38(%rbp),%rax
    2bec:	48 01 d0             	add    %rdx,%rax
    2bef:	c6 00 ea             	movb   $0xea,(%rax)
    2bf2:	e9 87 00 00 00       	jmp    2c7e <move_var+0x177b>
    2bf7:	8b 45 ec             	mov    -0x14(%rbp),%eax
    2bfa:	8d 50 01             	lea    0x1(%rax),%edx
    2bfd:	89 55 ec             	mov    %edx,-0x14(%rbp)
    2c00:	48 63 d0             	movslq %eax,%rdx
    2c03:	48 8b 45 c8          	mov    -0x38(%rbp),%rax
    2c07:	48 01 d0             	add    %rdx,%rax
    2c0a:	c6 00 4c             	movb   $0x4c,(%rax)
    2c0d:	8b 45 ec             	mov    -0x14(%rbp),%eax
    2c10:	8d 50 01             	lea    0x1(%rax),%edx
    2c13:	89 55 ec             	mov    %edx,-0x14(%rbp)
    2c16:	48 63 d0             	movslq %eax,%rdx
    2c19:	48 8b 45 c8          	mov    -0x38(%rbp),%rax
    2c1d:	48 01 d0             	add    %rdx,%rax
    2c20:	c6 00 89             	movb   $0x89,(%rax)
    2c23:	8b 45 ec             	mov    -0x14(%rbp),%eax
    2c26:	8d 50 01             	lea    0x1(%rax),%edx
    2c29:	89 55 ec             	mov    %edx,-0x14(%rbp)
    2c2c:	48 63 d0             	movslq %eax,%rdx
    2c2f:	48 8b 45 c8          	mov    -0x38(%rbp),%rax
    2c33:	48 01 d0             	add    %rdx,%rax
    2c36:	c6 00 ee             	movb   $0xee,(%rax)
    2c39:	eb 43                	jmp    2c7e <move_var+0x177b>
    2c3b:	8b 45 ec             	mov    -0x14(%rbp),%eax
    2c3e:	8d 50 01             	lea    0x1(%rax),%edx
    2c41:	89 55 ec             	mov    %edx,-0x14(%rbp)
    2c44:	48 63 d0             	movslq %eax,%rdx
    2c47:	48 8b 45 c8          	mov    -0x38(%rbp),%rax
    2c4b:	48 01 d0             	add    %rdx,%rax
    2c4e:	c6 00 4c             	movb   $0x4c,(%rax)
    2c51:	8b 45 ec             	mov    -0x14(%rbp),%eax
    2c54:	8d 50 01             	lea    0x1(%rax),%edx
    2c57:	89 55 ec             	mov    %edx,-0x14(%rbp)
    2c5a:	48 63 d0             	movslq %eax,%rdx
    2c5d:	48 8b 45 c8          	mov    -0x38(%rbp),%rax
    2c61:	48 01 d0             	add    %rdx,%rax
    2c64:	c6 00 89             	movb   $0x89,(%rax)
    2c67:	8b 45 ec             	mov    -0x14(%rbp),%eax
    2c6a:	8d 50 01             	lea    0x1(%rax),%edx
    2c6d:	89 55 ec             	mov    %edx,-0x14(%rbp)
    2c70:	48 63 d0             	movslq %eax,%rdx
    2c73:	48 8b 45 c8          	mov    -0x38(%rbp),%rax
    2c77:	48 01 d0             	add    %rdx,%rax
    2c7a:	c6 00 ec             	movb   $0xec,(%rax)
    2c7d:	90                   	nop
    2c7e:	e9 a0 40 00 00       	jmp    6d23 <move_var+0x5820>
    2c83:	48 81 7d f8 1a a7 88 	cmpq   $0xb88a71a,-0x8(%rbp)
    2c8a:	0b 
    2c8b:	0f 84 1f 05 00 00    	je     31b0 <move_var+0x1cad>
    2c91:	48 81 7d f8 1a a7 88 	cmpq   $0xb88a71a,-0x8(%rbp)
    2c98:	0b 
    2c99:	0f 87 87 40 00 00    	ja     6d26 <move_var+0x5823>
    2c9f:	48 81 7d f8 13 a7 88 	cmpq   $0xb88a713,-0x8(%rbp)
    2ca6:	0b 
    2ca7:	0f 84 bf 04 00 00    	je     316c <move_var+0x1c69>
    2cad:	48 81 7d f8 13 a7 88 	cmpq   $0xb88a713,-0x8(%rbp)
    2cb4:	0b 
    2cb5:	0f 87 6b 40 00 00    	ja     6d26 <move_var+0x5823>
    2cbb:	48 81 7d f8 33 a5 88 	cmpq   $0xb88a533,-0x8(%rbp)
    2cc2:	0b 
    2cc3:	0f 84 5c 04 00 00    	je     3125 <move_var+0x1c22>
    2cc9:	48 81 7d f8 33 a5 88 	cmpq   $0xb88a533,-0x8(%rbp)
    2cd0:	0b 
    2cd1:	0f 87 4f 40 00 00    	ja     6d26 <move_var+0x5823>
    2cd7:	48 81 7d f8 24 a5 88 	cmpq   $0xb88a524,-0x8(%rbp)
    2cde:	0b 
    2cdf:	0f 84 f9 03 00 00    	je     30de <move_var+0x1bdb>
    2ce5:	48 81 7d f8 24 a5 88 	cmpq   $0xb88a524,-0x8(%rbp)
    2cec:	0b 
    2ced:	0f 87 33 40 00 00    	ja     6d26 <move_var+0x5823>
    2cf3:	48 81 7d f8 12 a5 88 	cmpq   $0xb88a512,-0x8(%rbp)
    2cfa:	0b 
    2cfb:	0f 84 96 03 00 00    	je     3097 <move_var+0x1b94>
    2d01:	48 81 7d f8 12 a5 88 	cmpq   $0xb88a512,-0x8(%rbp)
    2d08:	0b 
    2d09:	0f 87 17 40 00 00    	ja     6d26 <move_var+0x5823>
    2d0f:	48 81 7d f8 f1 a4 88 	cmpq   $0xb88a4f1,-0x8(%rbp)
    2d16:	0b 
    2d17:	0f 84 33 03 00 00    	je     3050 <move_var+0x1b4d>
    2d1d:	48 81 7d f8 f1 a4 88 	cmpq   $0xb88a4f1,-0x8(%rbp)
    2d24:	0b 
    2d25:	0f 87 fb 3f 00 00    	ja     6d26 <move_var+0x5823>
    2d2b:	48 81 7d f8 e9 a4 88 	cmpq   $0xb88a4e9,-0x8(%rbp)
    2d32:	0b 
    2d33:	0f 84 d0 02 00 00    	je     3009 <move_var+0x1b06>
    2d39:	48 81 7d f8 e9 a4 88 	cmpq   $0xb88a4e9,-0x8(%rbp)
    2d40:	0b 
    2d41:	0f 87 df 3f 00 00    	ja     6d26 <move_var+0x5823>
    2d47:	48 81 7d f8 d0 a4 88 	cmpq   $0xb88a4d0,-0x8(%rbp)
    2d4e:	0b 
    2d4f:	0f 84 6d 02 00 00    	je     2fc2 <move_var+0x1abf>
    2d55:	48 81 7d f8 d0 a4 88 	cmpq   $0xb88a4d0,-0x8(%rbp)
    2d5c:	0b 
    2d5d:	0f 87 c3 3f 00 00    	ja     6d26 <move_var+0x5823>
    2d63:	48 81 7d f8 5d 9e 88 	cmpq   $0xb889e5d,-0x8(%rbp)
    2d6a:	0b 
    2d6b:	0f 87 b5 3f 00 00    	ja     6d26 <move_var+0x5823>
    2d71:	48 81 7d f8 58 9e 88 	cmpq   $0xb889e58,-0x8(%rbp)
    2d78:	0b 
    2d79:	73 21                	jae    2d9c <move_var+0x1899>
    2d7b:	48 81 7d f8 2f 79 59 	cmpq   $0x59792f,-0x8(%rbp)
    2d82:	00 
    2d83:	0f 84 ab 01 00 00    	je     2f34 <move_var+0x1a31>
    2d89:	48 81 7d f8 30 79 59 	cmpq   $0x597930,-0x8(%rbp)
    2d90:	00 
    2d91:	0f 84 e4 01 00 00    	je     2f7b <move_var+0x1a78>
    2d97:	e9 8a 3f 00 00       	jmp    6d26 <move_var+0x5823>
    2d9c:	48 8b 45 f8          	mov    -0x8(%rbp),%rax
    2da0:	48 2d 58 9e 88 0b    	sub    $0xb889e58,%rax
    2da6:	48 83 f8 05          	cmp    $0x5,%rax
    2daa:	0f 87 76 3f 00 00    	ja     6d26 <move_var+0x5823>
    2db0:	48 8d 14 85 00 00 00 	lea    0x0(,%rax,4),%rdx
    2db7:	00 
    2db8:	48 8d 05 fd 42 00 00 	lea    0x42fd(%rip),%rax        # 70bc <_IO_stdin_used+0xbc>
    2dbf:	8b 04 02             	mov    (%rdx,%rax,1),%eax
    2dc2:	48 98                	cltq
    2dc4:	48 8d 15 f1 42 00 00 	lea    0x42f1(%rip),%rdx        # 70bc <_IO_stdin_used+0xbc>
    2dcb:	48 01 d0             	add    %rdx,%rax
    2dce:	3e ff e0             	notrack jmp *%rax
    2dd1:	8b 45 ec             	mov    -0x14(%rbp),%eax
    2dd4:	8d 50 01             	lea    0x1(%rax),%edx
    2dd7:	89 55 ec             	mov    %edx,-0x14(%rbp)
    2dda:	48 63 d0             	movslq %eax,%rdx
    2ddd:	48 8b 45 c8          	mov    -0x38(%rbp),%rax
    2de1:	48 01 d0             	add    %rdx,%rax
    2de4:	c6 00 4d             	movb   $0x4d,(%rax)
    2de7:	8b 45 ec             	mov    -0x14(%rbp),%eax
    2dea:	8d 50 01             	lea    0x1(%rax),%edx
    2ded:	89 55 ec             	mov    %edx,-0x14(%rbp)
    2df0:	48 63 d0             	movslq %eax,%rdx
    2df3:	48 8b 45 c8          	mov    -0x38(%rbp),%rax
    2df7:	48 01 d0             	add    %rdx,%rax
    2dfa:	c6 00 89             	movb   $0x89,(%rax)
    2dfd:	8b 45 ec             	mov    -0x14(%rbp),%eax
    2e00:	8d 50 01             	lea    0x1(%rax),%edx
    2e03:	89 55 ec             	mov    %edx,-0x14(%rbp)
    2e06:	48 63 d0             	movslq %eax,%rdx
    2e09:	48 8b 45 c8          	mov    -0x38(%rbp),%rax
    2e0d:	48 01 d0             	add    %rdx,%rax
    2e10:	c6 00 f2             	movb   $0xf2,(%rax)
    2e13:	e9 db 03 00 00       	jmp    31f3 <move_var+0x1cf0>
    2e18:	8b 45 ec             	mov    -0x14(%rbp),%eax
    2e1b:	8d 50 01             	lea    0x1(%rax),%edx
    2e1e:	89 55 ec             	mov    %edx,-0x14(%rbp)
    2e21:	48 63 d0             	movslq %eax,%rdx
    2e24:	48 8b 45 c8          	mov    -0x38(%rbp),%rax
    2e28:	48 01 d0             	add    %rdx,%rax
    2e2b:	c6 00 4d             	movb   $0x4d,(%rax)
    2e2e:	8b 45 ec             	mov    -0x14(%rbp),%eax
    2e31:	8d 50 01             	lea    0x1(%rax),%edx
    2e34:	89 55 ec             	mov    %edx,-0x14(%rbp)
    2e37:	48 63 d0             	movslq %eax,%rdx
    2e3a:	48 8b 45 c8          	mov    -0x38(%rbp),%rax
    2e3e:	48 01 d0             	add    %rdx,%rax
    2e41:	c6 00 89             	movb   $0x89,(%rax)
    2e44:	8b 45 ec             	mov    -0x14(%rbp),%eax
    2e47:	8d 50 01             	lea    0x1(%rax),%edx
    2e4a:	89 55 ec             	mov    %edx,-0x14(%rbp)
    2e4d:	48 63 d0             	movslq %eax,%rdx
    2e50:	48 8b 45 c8          	mov    -0x38(%rbp),%rax
    2e54:	48 01 d0             	add    %rdx,%rax
    2e57:	c6 00 f3             	movb   $0xf3,(%rax)
    2e5a:	e9 94 03 00 00       	jmp    31f3 <move_var+0x1cf0>
    2e5f:	8b 45 ec             	mov    -0x14(%rbp),%eax
    2e62:	8d 50 01             	lea    0x1(%rax),%edx
    2e65:	89 55 ec             	mov    %edx,-0x14(%rbp)
    2e68:	48 63 d0             	movslq %eax,%rdx
    2e6b:	48 8b 45 c8          	mov    -0x38(%rbp),%rax
    2e6f:	48 01 d0             	add    %rdx,%rax
    2e72:	c6 00 4d             	movb   $0x4d,(%rax)
    2e75:	8b 45 ec             	mov    -0x14(%rbp),%eax
    2e78:	8d 50 01             	lea    0x1(%rax),%edx
    2e7b:	89 55 ec             	mov    %edx,-0x14(%rbp)
    2e7e:	48 63 d0             	movslq %eax,%rdx
    2e81:	48 8b 45 c8          	mov    -0x38(%rbp),%rax
    2e85:	48 01 d0             	add    %rdx,%rax
    2e88:	c6 00 89             	movb   $0x89,(%rax)
    2e8b:	8b 45 ec             	mov    -0x14(%rbp),%eax
    2e8e:	8d 50 01             	lea    0x1(%rax),%edx
    2e91:	89 55 ec             	mov    %edx,-0x14(%rbp)
    2e94:	48 63 d0             	movslq %eax,%rdx
    2e97:	48 8b 45 c8          	mov    -0x38(%rbp),%rax
    2e9b:	48 01 d0             	add    %rdx,%rax
    2e9e:	c6 00 f4             	movb   $0xf4,(%rax)
    2ea1:	e9 4d 03 00 00       	jmp    31f3 <move_var+0x1cf0>
    2ea6:	8b 45 ec             	mov    -0x14(%rbp),%eax
    2ea9:	8d 50 01             	lea    0x1(%rax),%edx
    2eac:	89 55 ec             	mov    %edx,-0x14(%rbp)
    2eaf:	48 63 d0             	movslq %eax,%rdx
    2eb2:	48 8b 45 c8          	mov    -0x38(%rbp),%rax
    2eb6:	48 01 d0             	add    %rdx,%rax
    2eb9:	c6 00 4d             	movb   $0x4d,(%rax)
    2ebc:	8b 45 ec             	mov    -0x14(%rbp),%eax
    2ebf:	8d 50 01             	lea    0x1(%rax),%edx
    2ec2:	89 55 ec             	mov    %edx,-0x14(%rbp)
    2ec5:	48 63 d0             	movslq %eax,%rdx
    2ec8:	48 8b 45 c8          	mov    -0x38(%rbp),%rax
    2ecc:	48 01 d0             	add    %rdx,%rax
    2ecf:	c6 00 89             	movb   $0x89,(%rax)
    2ed2:	8b 45 ec             	mov    -0x14(%rbp),%eax
    2ed5:	8d 50 01             	lea    0x1(%rax),%edx
    2ed8:	89 55 ec             	mov    %edx,-0x14(%rbp)
    2edb:	48 63 d0             	movslq %eax,%rdx
    2ede:	48 8b 45 c8          	mov    -0x38(%rbp),%rax
    2ee2:	48 01 d0             	add    %rdx,%rax
    2ee5:	c6 00 f5             	movb   $0xf5,(%rax)
    2ee8:	e9 06 03 00 00       	jmp    31f3 <move_var+0x1cf0>
    2eed:	8b 45 ec             	mov    -0x14(%rbp),%eax
    2ef0:	8d 50 01             	lea    0x1(%rax),%edx
    2ef3:	89 55 ec             	mov    %edx,-0x14(%rbp)
    2ef6:	48 63 d0             	movslq %eax,%rdx
    2ef9:	48 8b 45 c8          	mov    -0x38(%rbp),%rax
    2efd:	48 01 d0             	add    %rdx,%rax
    2f00:	c6 00 4d             	movb   $0x4d,(%rax)
    2f03:	8b 45 ec             	mov    -0x14(%rbp),%eax
    2f06:	8d 50 01             	lea    0x1(%rax),%edx
    2f09:	89 55 ec             	mov    %edx,-0x14(%rbp)
    2f0c:	48 63 d0             	movslq %eax,%rdx
    2f0f:	48 8b 45 c8          	mov    -0x38(%rbp),%rax
    2f13:	48 01 d0             	add    %rdx,%rax
    2f16:	c6 00 89             	movb   $0x89,(%rax)
    2f19:	8b 45 ec             	mov    -0x14(%rbp),%eax
    2f1c:	8d 50 01             	lea    0x1(%rax),%edx
    2f1f:	89 55 ec             	mov    %edx,-0x14(%rbp)
    2f22:	48 63 d0             	movslq %eax,%rdx
    2f25:	48 8b 45 c8          	mov    -0x38(%rbp),%rax
    2f29:	48 01 d0             	add    %rdx,%rax
    2f2c:	c6 00 f7             	movb   $0xf7,(%rax)
    2f2f:	e9 bf 02 00 00       	jmp    31f3 <move_var+0x1cf0>
    2f34:	8b 45 ec             	mov    -0x14(%rbp),%eax
    2f37:	8d 50 01             	lea    0x1(%rax),%edx
    2f3a:	89 55 ec             	mov    %edx,-0x14(%rbp)
    2f3d:	48 63 d0             	movslq %eax,%rdx
    2f40:	48 8b 45 c8          	mov    -0x38(%rbp),%rax
    2f44:	48 01 d0             	add    %rdx,%rax
    2f47:	c6 00 4d             	movb   $0x4d,(%rax)
    2f4a:	8b 45 ec             	mov    -0x14(%rbp),%eax
    2f4d:	8d 50 01             	lea    0x1(%rax),%edx
    2f50:	89 55 ec             	mov    %edx,-0x14(%rbp)
    2f53:	48 63 d0             	movslq %eax,%rdx
    2f56:	48 8b 45 c8          	mov    -0x38(%rbp),%rax
    2f5a:	48 01 d0             	add    %rdx,%rax
    2f5d:	c6 00 89             	movb   $0x89,(%rax)
    2f60:	8b 45 ec             	mov    -0x14(%rbp),%eax
    2f63:	8d 50 01             	lea    0x1(%rax),%edx
    2f66:	89 55 ec             	mov    %edx,-0x14(%rbp)
    2f69:	48 63 d0             	movslq %eax,%rdx
    2f6c:	48 8b 45 c8          	mov    -0x38(%rbp),%rax
    2f70:	48 01 d0             	add    %rdx,%rax
    2f73:	c6 00 f0             	movb   $0xf0,(%rax)
    2f76:	e9 78 02 00 00       	jmp    31f3 <move_var+0x1cf0>
    2f7b:	8b 45 ec             	mov    -0x14(%rbp),%eax
    2f7e:	8d 50 01             	lea    0x1(%rax),%edx
    2f81:	89 55 ec             	mov    %edx,-0x14(%rbp)
    2f84:	48 63 d0             	movslq %eax,%rdx
    2f87:	48 8b 45 c8          	mov    -0x38(%rbp),%rax
    2f8b:	48 01 d0             	add    %rdx,%rax
    2f8e:	c6 00 4d             	movb   $0x4d,(%rax)
    2f91:	8b 45 ec             	mov    -0x14(%rbp),%eax
    2f94:	8d 50 01             	lea    0x1(%rax),%edx
    2f97:	89 55 ec             	mov    %edx,-0x14(%rbp)
    2f9a:	48 63 d0             	movslq %eax,%rdx
    2f9d:	48 8b 45 c8          	mov    -0x38(%rbp),%rax
    2fa1:	48 01 d0             	add    %rdx,%rax
    2fa4:	c6 00 89             	movb   $0x89,(%rax)
    2fa7:	8b 45 ec             	mov    -0x14(%rbp),%eax
    2faa:	8d 50 01             	lea    0x1(%rax),%edx
    2fad:	89 55 ec             	mov    %edx,-0x14(%rbp)
    2fb0:	48 63 d0             	movslq %eax,%rdx
    2fb3:	48 8b 45 c8          	mov    -0x38(%rbp),%rax
    2fb7:	48 01 d0             	add    %rdx,%rax
    2fba:	c6 00 f1             	movb   $0xf1,(%rax)
    2fbd:	e9 31 02 00 00       	jmp    31f3 <move_var+0x1cf0>
    2fc2:	8b 45 ec             	mov    -0x14(%rbp),%eax
    2fc5:	8d 50 01             	lea    0x1(%rax),%edx
    2fc8:	89 55 ec             	mov    %edx,-0x14(%rbp)
    2fcb:	48 63 d0             	movslq %eax,%rdx
    2fce:	48 8b 45 c8          	mov    -0x38(%rbp),%rax
    2fd2:	48 01 d0             	add    %rdx,%rax
    2fd5:	c6 00 4c             	movb   $0x4c,(%rax)
    2fd8:	8b 45 ec             	mov    -0x14(%rbp),%eax
    2fdb:	8d 50 01             	lea    0x1(%rax),%edx
    2fde:	89 55 ec             	mov    %edx,-0x14(%rbp)
    2fe1:	48 63 d0             	movslq %eax,%rdx
    2fe4:	48 8b 45 c8          	mov    -0x38(%rbp),%rax
    2fe8:	48 01 d0             	add    %rdx,%rax
    2feb:	c6 00 89             	movb   $0x89,(%rax)
    2fee:	8b 45 ec             	mov    -0x14(%rbp),%eax
    2ff1:	8d 50 01             	lea    0x1(%rax),%edx
    2ff4:	89 55 ec             	mov    %edx,-0x14(%rbp)
    2ff7:	48 63 d0             	movslq %eax,%rdx
    2ffa:	48 8b 45 c8          	mov    -0x38(%rbp),%rax
    2ffe:	48 01 d0             	add    %rdx,%rax
    3001:	c6 00 f0             	movb   $0xf0,(%rax)
    3004:	e9 ea 01 00 00       	jmp    31f3 <move_var+0x1cf0>
    3009:	8b 45 ec             	mov    -0x14(%rbp),%eax
    300c:	8d 50 01             	lea    0x1(%rax),%edx
    300f:	89 55 ec             	mov    %edx,-0x14(%rbp)
    3012:	48 63 d0             	movslq %eax,%rdx
    3015:	48 8b 45 c8          	mov    -0x38(%rbp),%rax
    3019:	48 01 d0             	add    %rdx,%rax
    301c:	c6 00 4c             	movb   $0x4c,(%rax)
    301f:	8b 45 ec             	mov    -0x14(%rbp),%eax
    3022:	8d 50 01             	lea    0x1(%rax),%edx
    3025:	89 55 ec             	mov    %edx,-0x14(%rbp)
    3028:	48 63 d0             	movslq %eax,%rdx
    302b:	48 8b 45 c8          	mov    -0x38(%rbp),%rax
    302f:	48 01 d0             	add    %rdx,%rax
    3032:	c6 00 89             	movb   $0x89,(%rax)
    3035:	8b 45 ec             	mov    -0x14(%rbp),%eax
    3038:	8d 50 01             	lea    0x1(%rax),%edx
    303b:	89 55 ec             	mov    %edx,-0x14(%rbp)
    303e:	48 63 d0             	movslq %eax,%rdx
    3041:	48 8b 45 c8          	mov    -0x38(%rbp),%rax
    3045:	48 01 d0             	add    %rdx,%rax
    3048:	c6 00 f5             	movb   $0xf5,(%rax)
    304b:	e9 a3 01 00 00       	jmp    31f3 <move_var+0x1cf0>
    3050:	8b 45 ec             	mov    -0x14(%rbp),%eax
    3053:	8d 50 01             	lea    0x1(%rax),%edx
    3056:	89 55 ec             	mov    %edx,-0x14(%rbp)
    3059:	48 63 d0             	movslq %eax,%rdx
    305c:	48 8b 45 c8          	mov    -0x38(%rbp),%rax
    3060:	48 01 d0             	add    %rdx,%rax
    3063:	c6 00 4c             	movb   $0x4c,(%rax)
    3066:	8b 45 ec             	mov    -0x14(%rbp),%eax
    3069:	8d 50 01             	lea    0x1(%rax),%edx
    306c:	89 55 ec             	mov    %edx,-0x14(%rbp)
    306f:	48 63 d0             	movslq %eax,%rdx
    3072:	48 8b 45 c8          	mov    -0x38(%rbp),%rax
    3076:	48 01 d0             	add    %rdx,%rax
    3079:	c6 00 89             	movb   $0x89,(%rax)
    307c:	8b 45 ec             	mov    -0x14(%rbp),%eax
    307f:	8d 50 01             	lea    0x1(%rax),%edx
    3082:	89 55 ec             	mov    %edx,-0x14(%rbp)
    3085:	48 63 d0             	movslq %eax,%rdx
    3088:	48 8b 45 c8          	mov    -0x38(%rbp),%rax
    308c:	48 01 d0             	add    %rdx,%rax
    308f:	c6 00 f3             	movb   $0xf3,(%rax)
    3092:	e9 5c 01 00 00       	jmp    31f3 <move_var+0x1cf0>
    3097:	8b 45 ec             	mov    -0x14(%rbp),%eax
    309a:	8d 50 01             	lea    0x1(%rax),%edx
    309d:	89 55 ec             	mov    %edx,-0x14(%rbp)
    30a0:	48 63 d0             	movslq %eax,%rdx
    30a3:	48 8b 45 c8          	mov    -0x38(%rbp),%rax
    30a7:	48 01 d0             	add    %rdx,%rax
    30aa:	c6 00 4c             	movb   $0x4c,(%rax)
    30ad:	8b 45 ec             	mov    -0x14(%rbp),%eax
    30b0:	8d 50 01             	lea    0x1(%rax),%edx
    30b3:	89 55 ec             	mov    %edx,-0x14(%rbp)
    30b6:	48 63 d0             	movslq %eax,%rdx
    30b9:	48 8b 45 c8          	mov    -0x38(%rbp),%rax
    30bd:	48 01 d0             	add    %rdx,%rax
    30c0:	c6 00 89             	movb   $0x89,(%rax)
    30c3:	8b 45 ec             	mov    -0x14(%rbp),%eax
    30c6:	8d 50 01             	lea    0x1(%rax),%edx
    30c9:	89 55 ec             	mov    %edx,-0x14(%rbp)
    30cc:	48 63 d0             	movslq %eax,%rdx
    30cf:	48 8b 45 c8          	mov    -0x38(%rbp),%rax
    30d3:	48 01 d0             	add    %rdx,%rax
    30d6:	c6 00 f1             	movb   $0xf1,(%rax)
    30d9:	e9 15 01 00 00       	jmp    31f3 <move_var+0x1cf0>
    30de:	8b 45 ec             	mov    -0x14(%rbp),%eax
    30e1:	8d 50 01             	lea    0x1(%rax),%edx
    30e4:	89 55 ec             	mov    %edx,-0x14(%rbp)
    30e7:	48 63 d0             	movslq %eax,%rdx
    30ea:	48 8b 45 c8          	mov    -0x38(%rbp),%rax
    30ee:	48 01 d0             	add    %rdx,%rax
    30f1:	c6 00 4c             	movb   $0x4c,(%rax)
    30f4:	8b 45 ec             	mov    -0x14(%rbp),%eax
    30f7:	8d 50 01             	lea    0x1(%rax),%edx
    30fa:	89 55 ec             	mov    %edx,-0x14(%rbp)
    30fd:	48 63 d0             	movslq %eax,%rdx
    3100:	48 8b 45 c8          	mov    -0x38(%rbp),%rax
    3104:	48 01 d0             	add    %rdx,%rax
    3107:	c6 00 89             	movb   $0x89,(%rax)
    310a:	8b 45 ec             	mov    -0x14(%rbp),%eax
    310d:	8d 50 01             	lea    0x1(%rax),%edx
    3110:	89 55 ec             	mov    %edx,-0x14(%rbp)
    3113:	48 63 d0             	movslq %eax,%rdx
    3116:	48 8b 45 c8          	mov    -0x38(%rbp),%rax
    311a:	48 01 d0             	add    %rdx,%rax
    311d:	c6 00 f7             	movb   $0xf7,(%rax)
    3120:	e9 ce 00 00 00       	jmp    31f3 <move_var+0x1cf0>
    3125:	8b 45 ec             	mov    -0x14(%rbp),%eax
    3128:	8d 50 01             	lea    0x1(%rax),%edx
    312b:	89 55 ec             	mov    %edx,-0x14(%rbp)
    312e:	48 63 d0             	movslq %eax,%rdx
    3131:	48 8b 45 c8          	mov    -0x38(%rbp),%rax
    3135:	48 01 d0             	add    %rdx,%rax
    3138:	c6 00 4c             	movb   $0x4c,(%rax)
    313b:	8b 45 ec             	mov    -0x14(%rbp),%eax
    313e:	8d 50 01             	lea    0x1(%rax),%edx
    3141:	89 55 ec             	mov    %edx,-0x14(%rbp)
    3144:	48 63 d0             	movslq %eax,%rdx
    3147:	48 8b 45 c8          	mov    -0x38(%rbp),%rax
    314b:	48 01 d0             	add    %rdx,%rax
    314e:	c6 00 89             	movb   $0x89,(%rax)
    3151:	8b 45 ec             	mov    -0x14(%rbp),%eax
    3154:	8d 50 01             	lea    0x1(%rax),%edx
    3157:	89 55 ec             	mov    %edx,-0x14(%rbp)
    315a:	48 63 d0             	movslq %eax,%rdx
    315d:	48 8b 45 c8          	mov    -0x38(%rbp),%rax
    3161:	48 01 d0             	add    %rdx,%rax
    3164:	c6 00 f2             	movb   $0xf2,(%rax)
    3167:	e9 87 00 00 00       	jmp    31f3 <move_var+0x1cf0>
    316c:	8b 45 ec             	mov    -0x14(%rbp),%eax
    316f:	8d 50 01             	lea    0x1(%rax),%edx
    3172:	89 55 ec             	mov    %edx,-0x14(%rbp)
    3175:	48 63 d0             	movslq %eax,%rdx
    3178:	48 8b 45 c8          	mov    -0x38(%rbp),%rax
    317c:	48 01 d0             	add    %rdx,%rax
    317f:	c6 00 4c             	movb   $0x4c,(%rax)
    3182:	8b 45 ec             	mov    -0x14(%rbp),%eax
    3185:	8d 50 01             	lea    0x1(%rax),%edx
    3188:	89 55 ec             	mov    %edx,-0x14(%rbp)
    318b:	48 63 d0             	movslq %eax,%rdx
    318e:	48 8b 45 c8          	mov    -0x38(%rbp),%rax
    3192:	48 01 d0             	add    %rdx,%rax
    3195:	c6 00 89             	movb   $0x89,(%rax)
    3198:	8b 45 ec             	mov    -0x14(%rbp),%eax
    319b:	8d 50 01             	lea    0x1(%rax),%edx
    319e:	89 55 ec             	mov    %edx,-0x14(%rbp)
    31a1:	48 63 d0             	movslq %eax,%rdx
    31a4:	48 8b 45 c8          	mov    -0x38(%rbp),%rax
    31a8:	48 01 d0             	add    %rdx,%rax
    31ab:	c6 00 f6             	movb   $0xf6,(%rax)
    31ae:	eb 43                	jmp    31f3 <move_var+0x1cf0>
    31b0:	8b 45 ec             	mov    -0x14(%rbp),%eax
    31b3:	8d 50 01             	lea    0x1(%rax),%edx
    31b6:	89 55 ec             	mov    %edx,-0x14(%rbp)
    31b9:	48 63 d0             	movslq %eax,%rdx
    31bc:	48 8b 45 c8          	mov    -0x38(%rbp),%rax
    31c0:	48 01 d0             	add    %rdx,%rax
    31c3:	c6 00 4c             	movb   $0x4c,(%rax)
    31c6:	8b 45 ec             	mov    -0x14(%rbp),%eax
    31c9:	8d 50 01             	lea    0x1(%rax),%edx
    31cc:	89 55 ec             	mov    %edx,-0x14(%rbp)
    31cf:	48 63 d0             	movslq %eax,%rdx
    31d2:	48 8b 45 c8          	mov    -0x38(%rbp),%rax
    31d6:	48 01 d0             	add    %rdx,%rax
    31d9:	c6 00 89             	movb   $0x89,(%rax)
    31dc:	8b 45 ec             	mov    -0x14(%rbp),%eax
    31df:	8d 50 01             	lea    0x1(%rax),%edx
    31e2:	89 55 ec             	mov    %edx,-0x14(%rbp)
    31e5:	48 63 d0             	movslq %eax,%rdx
    31e8:	48 8b 45 c8          	mov    -0x38(%rbp),%rax
    31ec:	48 01 d0             	add    %rdx,%rax
    31ef:	c6 00 f4             	movb   $0xf4,(%rax)
    31f2:	90                   	nop
    31f3:	e9 2e 3b 00 00       	jmp    6d26 <move_var+0x5823>
    31f8:	48 81 7d f8 1a a7 88 	cmpq   $0xb88a71a,-0x8(%rbp)
    31ff:	0b 
    3200:	0f 84 1f 05 00 00    	je     3725 <move_var+0x2222>
    3206:	48 81 7d f8 1a a7 88 	cmpq   $0xb88a71a,-0x8(%rbp)
    320d:	0b 
    320e:	0f 87 15 3b 00 00    	ja     6d29 <move_var+0x5826>
    3214:	48 81 7d f8 13 a7 88 	cmpq   $0xb88a713,-0x8(%rbp)
    321b:	0b 
    321c:	0f 84 bf 04 00 00    	je     36e1 <move_var+0x21de>
    3222:	48 81 7d f8 13 a7 88 	cmpq   $0xb88a713,-0x8(%rbp)
    3229:	0b 
    322a:	0f 87 f9 3a 00 00    	ja     6d29 <move_var+0x5826>
    3230:	48 81 7d f8 33 a5 88 	cmpq   $0xb88a533,-0x8(%rbp)
    3237:	0b 
    3238:	0f 84 5c 04 00 00    	je     369a <move_var+0x2197>
    323e:	48 81 7d f8 33 a5 88 	cmpq   $0xb88a533,-0x8(%rbp)
    3245:	0b 
    3246:	0f 87 dd 3a 00 00    	ja     6d29 <move_var+0x5826>
    324c:	48 81 7d f8 24 a5 88 	cmpq   $0xb88a524,-0x8(%rbp)
    3253:	0b 
    3254:	0f 84 f9 03 00 00    	je     3653 <move_var+0x2150>
    325a:	48 81 7d f8 24 a5 88 	cmpq   $0xb88a524,-0x8(%rbp)
    3261:	0b 
    3262:	0f 87 c1 3a 00 00    	ja     6d29 <move_var+0x5826>
    3268:	48 81 7d f8 12 a5 88 	cmpq   $0xb88a512,-0x8(%rbp)
    326f:	0b 
    3270:	0f 84 96 03 00 00    	je     360c <move_var+0x2109>
    3276:	48 81 7d f8 12 a5 88 	cmpq   $0xb88a512,-0x8(%rbp)
    327d:	0b 
    327e:	0f 87 a5 3a 00 00    	ja     6d29 <move_var+0x5826>
    3284:	48 81 7d f8 f1 a4 88 	cmpq   $0xb88a4f1,-0x8(%rbp)
    328b:	0b 
    328c:	0f 84 33 03 00 00    	je     35c5 <move_var+0x20c2>
    3292:	48 81 7d f8 f1 a4 88 	cmpq   $0xb88a4f1,-0x8(%rbp)
    3299:	0b 
    329a:	0f 87 89 3a 00 00    	ja     6d29 <move_var+0x5826>
    32a0:	48 81 7d f8 e9 a4 88 	cmpq   $0xb88a4e9,-0x8(%rbp)
    32a7:	0b 
    32a8:	0f 84 d0 02 00 00    	je     357e <move_var+0x207b>
    32ae:	48 81 7d f8 e9 a4 88 	cmpq   $0xb88a4e9,-0x8(%rbp)
    32b5:	0b 
    32b6:	0f 87 6d 3a 00 00    	ja     6d29 <move_var+0x5826>
    32bc:	48 81 7d f8 d0 a4 88 	cmpq   $0xb88a4d0,-0x8(%rbp)
    32c3:	0b 
    32c4:	0f 84 6d 02 00 00    	je     3537 <move_var+0x2034>
    32ca:	48 81 7d f8 d0 a4 88 	cmpq   $0xb88a4d0,-0x8(%rbp)
    32d1:	0b 
    32d2:	0f 87 51 3a 00 00    	ja     6d29 <move_var+0x5826>
    32d8:	48 81 7d f8 5c 9e 88 	cmpq   $0xb889e5c,-0x8(%rbp)
    32df:	0b 
    32e0:	0f 87 43 3a 00 00    	ja     6d29 <move_var+0x5826>
    32e6:	48 81 7d f8 58 9e 88 	cmpq   $0xb889e58,-0x8(%rbp)
    32ed:	0b 
    32ee:	73 21                	jae    3311 <move_var+0x1e0e>
    32f0:	48 81 7d f8 2f 79 59 	cmpq   $0x59792f,-0x8(%rbp)
    32f7:	00 
    32f8:	0f 84 ab 01 00 00    	je     34a9 <move_var+0x1fa6>
    32fe:	48 81 7d f8 30 79 59 	cmpq   $0x597930,-0x8(%rbp)
    3305:	00 
    3306:	0f 84 e4 01 00 00    	je     34f0 <move_var+0x1fed>
    330c:	e9 18 3a 00 00       	jmp    6d29 <move_var+0x5826>
    3311:	48 8b 45 f8          	mov    -0x8(%rbp),%rax
    3315:	48 2d 58 9e 88 0b    	sub    $0xb889e58,%rax
    331b:	48 83 f8 04          	cmp    $0x4,%rax
    331f:	0f 87 04 3a 00 00    	ja     6d29 <move_var+0x5826>
    3325:	48 8d 14 85 00 00 00 	lea    0x0(,%rax,4),%rdx
    332c:	00 
    332d:	48 8d 05 a0 3d 00 00 	lea    0x3da0(%rip),%rax        # 70d4 <_IO_stdin_used+0xd4>
    3334:	8b 04 02             	mov    (%rdx,%rax,1),%eax
    3337:	48 98                	cltq
    3339:	48 8d 15 94 3d 00 00 	lea    0x3d94(%rip),%rdx        # 70d4 <_IO_stdin_used+0xd4>
    3340:	48 01 d0             	add    %rdx,%rax
    3343:	3e ff e0             	notrack jmp *%rax
    3346:	8b 45 ec             	mov    -0x14(%rbp),%eax
    3349:	8d 50 01             	lea    0x1(%rax),%edx
    334c:	89 55 ec             	mov    %edx,-0x14(%rbp)
    334f:	48 63 d0             	movslq %eax,%rdx
    3352:	48 8b 45 c8          	mov    -0x38(%rbp),%rax
    3356:	48 01 d0             	add    %rdx,%rax
    3359:	c6 00 4d             	movb   $0x4d,(%rax)
    335c:	8b 45 ec             	mov    -0x14(%rbp),%eax
    335f:	8d 50 01             	lea    0x1(%rax),%edx
    3362:	89 55 ec             	mov    %edx,-0x14(%rbp)
    3365:	48 63 d0             	movslq %eax,%rdx
    3368:	48 8b 45 c8          	mov    -0x38(%rbp),%rax
    336c:	48 01 d0             	add    %rdx,%rax
    336f:	c6 00 89             	movb   $0x89,(%rax)
    3372:	8b 45 ec             	mov    -0x14(%rbp),%eax
    3375:	8d 50 01             	lea    0x1(%rax),%edx
    3378:	89 55 ec             	mov    %edx,-0x14(%rbp)
    337b:	48 63 d0             	movslq %eax,%rdx
    337e:	48 8b 45 c8          	mov    -0x38(%rbp),%rax
    3382:	48 01 d0             	add    %rdx,%rax
    3385:	c6 00 fa             	movb   $0xfa,(%rax)
    3388:	e9 db 03 00 00       	jmp    3768 <move_var+0x2265>
    338d:	8b 45 ec             	mov    -0x14(%rbp),%eax
    3390:	8d 50 01             	lea    0x1(%rax),%edx
    3393:	89 55 ec             	mov    %edx,-0x14(%rbp)
    3396:	48 63 d0             	movslq %eax,%rdx
    3399:	48 8b 45 c8          	mov    -0x38(%rbp),%rax
    339d:	48 01 d0             	add    %rdx,%rax
    33a0:	c6 00 4d             	movb   $0x4d,(%rax)
    33a3:	8b 45 ec             	mov    -0x14(%rbp),%eax
    33a6:	8d 50 01             	lea    0x1(%rax),%edx
    33a9:	89 55 ec             	mov    %edx,-0x14(%rbp)
    33ac:	48 63 d0             	movslq %eax,%rdx
    33af:	48 8b 45 c8          	mov    -0x38(%rbp),%rax
    33b3:	48 01 d0             	add    %rdx,%rax
    33b6:	c6 00 89             	movb   $0x89,(%rax)
    33b9:	8b 45 ec             	mov    -0x14(%rbp),%eax
    33bc:	8d 50 01             	lea    0x1(%rax),%edx
    33bf:	89 55 ec             	mov    %edx,-0x14(%rbp)
    33c2:	48 63 d0             	movslq %eax,%rdx
    33c5:	48 8b 45 c8          	mov    -0x38(%rbp),%rax
    33c9:	48 01 d0             	add    %rdx,%rax
    33cc:	c6 00 fb             	movb   $0xfb,(%rax)
    33cf:	e9 94 03 00 00       	jmp    3768 <move_var+0x2265>
    33d4:	8b 45 ec             	mov    -0x14(%rbp),%eax
    33d7:	8d 50 01             	lea    0x1(%rax),%edx
    33da:	89 55 ec             	mov    %edx,-0x14(%rbp)
    33dd:	48 63 d0             	movslq %eax,%rdx
    33e0:	48 8b 45 c8          	mov    -0x38(%rbp),%rax
    33e4:	48 01 d0             	add    %rdx,%rax
    33e7:	c6 00 4d             	movb   $0x4d,(%rax)
    33ea:	8b 45 ec             	mov    -0x14(%rbp),%eax
    33ed:	8d 50 01             	lea    0x1(%rax),%edx
    33f0:	89 55 ec             	mov    %edx,-0x14(%rbp)
    33f3:	48 63 d0             	movslq %eax,%rdx
    33f6:	48 8b 45 c8          	mov    -0x38(%rbp),%rax
    33fa:	48 01 d0             	add    %rdx,%rax
    33fd:	c6 00 89             	movb   $0x89,(%rax)
    3400:	8b 45 ec             	mov    -0x14(%rbp),%eax
    3403:	8d 50 01             	lea    0x1(%rax),%edx
    3406:	89 55 ec             	mov    %edx,-0x14(%rbp)
    3409:	48 63 d0             	movslq %eax,%rdx
    340c:	48 8b 45 c8          	mov    -0x38(%rbp),%rax
    3410:	48 01 d0             	add    %rdx,%rax
    3413:	c6 00 fc             	movb   $0xfc,(%rax)
    3416:	e9 4d 03 00 00       	jmp    3768 <move_var+0x2265>
    341b:	8b 45 ec             	mov    -0x14(%rbp),%eax
    341e:	8d 50 01             	lea    0x1(%rax),%edx
    3421:	89 55 ec             	mov    %edx,-0x14(%rbp)
    3424:	48 63 d0             	movslq %eax,%rdx
    3427:	48 8b 45 c8          	mov    -0x38(%rbp),%rax
    342b:	48 01 d0             	add    %rdx,%rax
    342e:	c6 00 4d             	movb   $0x4d,(%rax)
    3431:	8b 45 ec             	mov    -0x14(%rbp),%eax
    3434:	8d 50 01             	lea    0x1(%rax),%edx
    3437:	89 55 ec             	mov    %edx,-0x14(%rbp)
    343a:	48 63 d0             	movslq %eax,%rdx
    343d:	48 8b 45 c8          	mov    -0x38(%rbp),%rax
    3441:	48 01 d0             	add    %rdx,%rax
    3444:	c6 00 89             	movb   $0x89,(%rax)
    3447:	8b 45 ec             	mov    -0x14(%rbp),%eax
    344a:	8d 50 01             	lea    0x1(%rax),%edx
    344d:	89 55 ec             	mov    %edx,-0x14(%rbp)
    3450:	48 63 d0             	movslq %eax,%rdx
    3453:	48 8b 45 c8          	mov    -0x38(%rbp),%rax
    3457:	48 01 d0             	add    %rdx,%rax
    345a:	c6 00 fd             	movb   $0xfd,(%rax)
    345d:	e9 06 03 00 00       	jmp    3768 <move_var+0x2265>
    3462:	8b 45 ec             	mov    -0x14(%rbp),%eax
    3465:	8d 50 01             	lea    0x1(%rax),%edx
    3468:	89 55 ec             	mov    %edx,-0x14(%rbp)
    346b:	48 63 d0             	movslq %eax,%rdx
    346e:	48 8b 45 c8          	mov    -0x38(%rbp),%rax
    3472:	48 01 d0             	add    %rdx,%rax
    3475:	c6 00 4d             	movb   $0x4d,(%rax)
    3478:	8b 45 ec             	mov    -0x14(%rbp),%eax
    347b:	8d 50 01             	lea    0x1(%rax),%edx
    347e:	89 55 ec             	mov    %edx,-0x14(%rbp)
    3481:	48 63 d0             	movslq %eax,%rdx
    3484:	48 8b 45 c8          	mov    -0x38(%rbp),%rax
    3488:	48 01 d0             	add    %rdx,%rax
    348b:	c6 00 89             	movb   $0x89,(%rax)
    348e:	8b 45 ec             	mov    -0x14(%rbp),%eax
    3491:	8d 50 01             	lea    0x1(%rax),%edx
    3494:	89 55 ec             	mov    %edx,-0x14(%rbp)
    3497:	48 63 d0             	movslq %eax,%rdx
    349a:	48 8b 45 c8          	mov    -0x38(%rbp),%rax
    349e:	48 01 d0             	add    %rdx,%rax
    34a1:	c6 00 fe             	movb   $0xfe,(%rax)
    34a4:	e9 bf 02 00 00       	jmp    3768 <move_var+0x2265>
    34a9:	8b 45 ec             	mov    -0x14(%rbp),%eax
    34ac:	8d 50 01             	lea    0x1(%rax),%edx
    34af:	89 55 ec             	mov    %edx,-0x14(%rbp)
    34b2:	48 63 d0             	movslq %eax,%rdx
    34b5:	48 8b 45 c8          	mov    -0x38(%rbp),%rax
    34b9:	48 01 d0             	add    %rdx,%rax
    34bc:	c6 00 4d             	movb   $0x4d,(%rax)
    34bf:	8b 45 ec             	mov    -0x14(%rbp),%eax
    34c2:	8d 50 01             	lea    0x1(%rax),%edx
    34c5:	89 55 ec             	mov    %edx,-0x14(%rbp)
    34c8:	48 63 d0             	movslq %eax,%rdx
    34cb:	48 8b 45 c8          	mov    -0x38(%rbp),%rax
    34cf:	48 01 d0             	add    %rdx,%rax
    34d2:	c6 00 89             	movb   $0x89,(%rax)
    34d5:	8b 45 ec             	mov    -0x14(%rbp),%eax
    34d8:	8d 50 01             	lea    0x1(%rax),%edx
    34db:	89 55 ec             	mov    %edx,-0x14(%rbp)
    34de:	48 63 d0             	movslq %eax,%rdx
    34e1:	48 8b 45 c8          	mov    -0x38(%rbp),%rax
    34e5:	48 01 d0             	add    %rdx,%rax
    34e8:	c6 00 f8             	movb   $0xf8,(%rax)
    34eb:	e9 78 02 00 00       	jmp    3768 <move_var+0x2265>
    34f0:	8b 45 ec             	mov    -0x14(%rbp),%eax
    34f3:	8d 50 01             	lea    0x1(%rax),%edx
    34f6:	89 55 ec             	mov    %edx,-0x14(%rbp)
    34f9:	48 63 d0             	movslq %eax,%rdx
    34fc:	48 8b 45 c8          	mov    -0x38(%rbp),%rax
    3500:	48 01 d0             	add    %rdx,%rax
    3503:	c6 00 4d             	movb   $0x4d,(%rax)
    3506:	8b 45 ec             	mov    -0x14(%rbp),%eax
    3509:	8d 50 01             	lea    0x1(%rax),%edx
    350c:	89 55 ec             	mov    %edx,-0x14(%rbp)
    350f:	48 63 d0             	movslq %eax,%rdx
    3512:	48 8b 45 c8          	mov    -0x38(%rbp),%rax
    3516:	48 01 d0             	add    %rdx,%rax
    3519:	c6 00 89             	movb   $0x89,(%rax)
    351c:	8b 45 ec             	mov    -0x14(%rbp),%eax
    351f:	8d 50 01             	lea    0x1(%rax),%edx
    3522:	89 55 ec             	mov    %edx,-0x14(%rbp)
    3525:	48 63 d0             	movslq %eax,%rdx
    3528:	48 8b 45 c8          	mov    -0x38(%rbp),%rax
    352c:	48 01 d0             	add    %rdx,%rax
    352f:	c6 00 f9             	movb   $0xf9,(%rax)
    3532:	e9 31 02 00 00       	jmp    3768 <move_var+0x2265>
    3537:	8b 45 ec             	mov    -0x14(%rbp),%eax
    353a:	8d 50 01             	lea    0x1(%rax),%edx
    353d:	89 55 ec             	mov    %edx,-0x14(%rbp)
    3540:	48 63 d0             	movslq %eax,%rdx
    3543:	48 8b 45 c8          	mov    -0x38(%rbp),%rax
    3547:	48 01 d0             	add    %rdx,%rax
    354a:	c6 00 4c             	movb   $0x4c,(%rax)
    354d:	8b 45 ec             	mov    -0x14(%rbp),%eax
    3550:	8d 50 01             	lea    0x1(%rax),%edx
    3553:	89 55 ec             	mov    %edx,-0x14(%rbp)
    3556:	48 63 d0             	movslq %eax,%rdx
    3559:	48 8b 45 c8          	mov    -0x38(%rbp),%rax
    355d:	48 01 d0             	add    %rdx,%rax
    3560:	c6 00 89             	movb   $0x89,(%rax)
    3563:	8b 45 ec             	mov    -0x14(%rbp),%eax
    3566:	8d 50 01             	lea    0x1(%rax),%edx
    3569:	89 55 ec             	mov    %edx,-0x14(%rbp)
    356c:	48 63 d0             	movslq %eax,%rdx
    356f:	48 8b 45 c8          	mov    -0x38(%rbp),%rax
    3573:	48 01 d0             	add    %rdx,%rax
    3576:	c6 00 f8             	movb   $0xf8,(%rax)
    3579:	e9 ea 01 00 00       	jmp    3768 <move_var+0x2265>
    357e:	8b 45 ec             	mov    -0x14(%rbp),%eax
    3581:	8d 50 01             	lea    0x1(%rax),%edx
    3584:	89 55 ec             	mov    %edx,-0x14(%rbp)
    3587:	48 63 d0             	movslq %eax,%rdx
    358a:	48 8b 45 c8          	mov    -0x38(%rbp),%rax
    358e:	48 01 d0             	add    %rdx,%rax
    3591:	c6 00 4c             	movb   $0x4c,(%rax)
    3594:	8b 45 ec             	mov    -0x14(%rbp),%eax
    3597:	8d 50 01             	lea    0x1(%rax),%edx
    359a:	89 55 ec             	mov    %edx,-0x14(%rbp)
    359d:	48 63 d0             	movslq %eax,%rdx
    35a0:	48 8b 45 c8          	mov    -0x38(%rbp),%rax
    35a4:	48 01 d0             	add    %rdx,%rax
    35a7:	c6 00 89             	movb   $0x89,(%rax)
    35aa:	8b 45 ec             	mov    -0x14(%rbp),%eax
    35ad:	8d 50 01             	lea    0x1(%rax),%edx
    35b0:	89 55 ec             	mov    %edx,-0x14(%rbp)
    35b3:	48 63 d0             	movslq %eax,%rdx
    35b6:	48 8b 45 c8          	mov    -0x38(%rbp),%rax
    35ba:	48 01 d0             	add    %rdx,%rax
    35bd:	c6 00 fd             	movb   $0xfd,(%rax)
    35c0:	e9 a3 01 00 00       	jmp    3768 <move_var+0x2265>
    35c5:	8b 45 ec             	mov    -0x14(%rbp),%eax
    35c8:	8d 50 01             	lea    0x1(%rax),%edx
    35cb:	89 55 ec             	mov    %edx,-0x14(%rbp)
    35ce:	48 63 d0             	movslq %eax,%rdx
    35d1:	48 8b 45 c8          	mov    -0x38(%rbp),%rax
    35d5:	48 01 d0             	add    %rdx,%rax
    35d8:	c6 00 4c             	movb   $0x4c,(%rax)
    35db:	8b 45 ec             	mov    -0x14(%rbp),%eax
    35de:	8d 50 01             	lea    0x1(%rax),%edx
    35e1:	89 55 ec             	mov    %edx,-0x14(%rbp)
    35e4:	48 63 d0             	movslq %eax,%rdx
    35e7:	48 8b 45 c8          	mov    -0x38(%rbp),%rax
    35eb:	48 01 d0             	add    %rdx,%rax
    35ee:	c6 00 89             	movb   $0x89,(%rax)
    35f1:	8b 45 ec             	mov    -0x14(%rbp),%eax
    35f4:	8d 50 01             	lea    0x1(%rax),%edx
    35f7:	89 55 ec             	mov    %edx,-0x14(%rbp)
    35fa:	48 63 d0             	movslq %eax,%rdx
    35fd:	48 8b 45 c8          	mov    -0x38(%rbp),%rax
    3601:	48 01 d0             	add    %rdx,%rax
    3604:	c6 00 fb             	movb   $0xfb,(%rax)
    3607:	e9 5c 01 00 00       	jmp    3768 <move_var+0x2265>
    360c:	8b 45 ec             	mov    -0x14(%rbp),%eax
    360f:	8d 50 01             	lea    0x1(%rax),%edx
    3612:	89 55 ec             	mov    %edx,-0x14(%rbp)
    3615:	48 63 d0             	movslq %eax,%rdx
    3618:	48 8b 45 c8          	mov    -0x38(%rbp),%rax
    361c:	48 01 d0             	add    %rdx,%rax
    361f:	c6 00 4c             	movb   $0x4c,(%rax)
    3622:	8b 45 ec             	mov    -0x14(%rbp),%eax
    3625:	8d 50 01             	lea    0x1(%rax),%edx
    3628:	89 55 ec             	mov    %edx,-0x14(%rbp)
    362b:	48 63 d0             	movslq %eax,%rdx
    362e:	48 8b 45 c8          	mov    -0x38(%rbp),%rax
    3632:	48 01 d0             	add    %rdx,%rax
    3635:	c6 00 89             	movb   $0x89,(%rax)
    3638:	8b 45 ec             	mov    -0x14(%rbp),%eax
    363b:	8d 50 01             	lea    0x1(%rax),%edx
    363e:	89 55 ec             	mov    %edx,-0x14(%rbp)
    3641:	48 63 d0             	movslq %eax,%rdx
    3644:	48 8b 45 c8          	mov    -0x38(%rbp),%rax
    3648:	48 01 d0             	add    %rdx,%rax
    364b:	c6 00 f9             	movb   $0xf9,(%rax)
    364e:	e9 15 01 00 00       	jmp    3768 <move_var+0x2265>
    3653:	8b 45 ec             	mov    -0x14(%rbp),%eax
    3656:	8d 50 01             	lea    0x1(%rax),%edx
    3659:	89 55 ec             	mov    %edx,-0x14(%rbp)
    365c:	48 63 d0             	movslq %eax,%rdx
    365f:	48 8b 45 c8          	mov    -0x38(%rbp),%rax
    3663:	48 01 d0             	add    %rdx,%rax
    3666:	c6 00 4c             	movb   $0x4c,(%rax)
    3669:	8b 45 ec             	mov    -0x14(%rbp),%eax
    366c:	8d 50 01             	lea    0x1(%rax),%edx
    366f:	89 55 ec             	mov    %edx,-0x14(%rbp)
    3672:	48 63 d0             	movslq %eax,%rdx
    3675:	48 8b 45 c8          	mov    -0x38(%rbp),%rax
    3679:	48 01 d0             	add    %rdx,%rax
    367c:	c6 00 89             	movb   $0x89,(%rax)
    367f:	8b 45 ec             	mov    -0x14(%rbp),%eax
    3682:	8d 50 01             	lea    0x1(%rax),%edx
    3685:	89 55 ec             	mov    %edx,-0x14(%rbp)
    3688:	48 63 d0             	movslq %eax,%rdx
    368b:	48 8b 45 c8          	mov    -0x38(%rbp),%rax
    368f:	48 01 d0             	add    %rdx,%rax
    3692:	c6 00 ff             	movb   $0xff,(%rax)
    3695:	e9 ce 00 00 00       	jmp    3768 <move_var+0x2265>
    369a:	8b 45 ec             	mov    -0x14(%rbp),%eax
    369d:	8d 50 01             	lea    0x1(%rax),%edx
    36a0:	89 55 ec             	mov    %edx,-0x14(%rbp)
    36a3:	48 63 d0             	movslq %eax,%rdx
    36a6:	48 8b 45 c8          	mov    -0x38(%rbp),%rax
    36aa:	48 01 d0             	add    %rdx,%rax
    36ad:	c6 00 4c             	movb   $0x4c,(%rax)
    36b0:	8b 45 ec             	mov    -0x14(%rbp),%eax
    36b3:	8d 50 01             	lea    0x1(%rax),%edx
    36b6:	89 55 ec             	mov    %edx,-0x14(%rbp)
    36b9:	48 63 d0             	movslq %eax,%rdx
    36bc:	48 8b 45 c8          	mov    -0x38(%rbp),%rax
    36c0:	48 01 d0             	add    %rdx,%rax
    36c3:	c6 00 89             	movb   $0x89,(%rax)
    36c6:	8b 45 ec             	mov    -0x14(%rbp),%eax
    36c9:	8d 50 01             	lea    0x1(%rax),%edx
    36cc:	89 55 ec             	mov    %edx,-0x14(%rbp)
    36cf:	48 63 d0             	movslq %eax,%rdx
    36d2:	48 8b 45 c8          	mov    -0x38(%rbp),%rax
    36d6:	48 01 d0             	add    %rdx,%rax
    36d9:	c6 00 fa             	movb   $0xfa,(%rax)
    36dc:	e9 87 00 00 00       	jmp    3768 <move_var+0x2265>
    36e1:	8b 45 ec             	mov    -0x14(%rbp),%eax
    36e4:	8d 50 01             	lea    0x1(%rax),%edx
    36e7:	89 55 ec             	mov    %edx,-0x14(%rbp)
    36ea:	48 63 d0             	movslq %eax,%rdx
    36ed:	48 8b 45 c8          	mov    -0x38(%rbp),%rax
    36f1:	48 01 d0             	add    %rdx,%rax
    36f4:	c6 00 4c             	movb   $0x4c,(%rax)
    36f7:	8b 45 ec             	mov    -0x14(%rbp),%eax
    36fa:	8d 50 01             	lea    0x1(%rax),%edx
    36fd:	89 55 ec             	mov    %edx,-0x14(%rbp)
    3700:	48 63 d0             	movslq %eax,%rdx
    3703:	48 8b 45 c8          	mov    -0x38(%rbp),%rax
    3707:	48 01 d0             	add    %rdx,%rax
    370a:	c6 00 89             	movb   $0x89,(%rax)
    370d:	8b 45 ec             	mov    -0x14(%rbp),%eax
    3710:	8d 50 01             	lea    0x1(%rax),%edx
    3713:	89 55 ec             	mov    %edx,-0x14(%rbp)
    3716:	48 63 d0             	movslq %eax,%rdx
    3719:	48 8b 45 c8          	mov    -0x38(%rbp),%rax
    371d:	48 01 d0             	add    %rdx,%rax
    3720:	c6 00 fe             	movb   $0xfe,(%rax)
    3723:	eb 43                	jmp    3768 <move_var+0x2265>
    3725:	8b 45 ec             	mov    -0x14(%rbp),%eax
    3728:	8d 50 01             	lea    0x1(%rax),%edx
    372b:	89 55 ec             	mov    %edx,-0x14(%rbp)
    372e:	48 63 d0             	movslq %eax,%rdx
    3731:	48 8b 45 c8          	mov    -0x38(%rbp),%rax
    3735:	48 01 d0             	add    %rdx,%rax
    3738:	c6 00 4c             	movb   $0x4c,(%rax)
    373b:	8b 45 ec             	mov    -0x14(%rbp),%eax
    373e:	8d 50 01             	lea    0x1(%rax),%edx
    3741:	89 55 ec             	mov    %edx,-0x14(%rbp)
    3744:	48 63 d0             	movslq %eax,%rdx
    3747:	48 8b 45 c8          	mov    -0x38(%rbp),%rax
    374b:	48 01 d0             	add    %rdx,%rax
    374e:	c6 00 89             	movb   $0x89,(%rax)
    3751:	8b 45 ec             	mov    -0x14(%rbp),%eax
    3754:	8d 50 01             	lea    0x1(%rax),%edx
    3757:	89 55 ec             	mov    %edx,-0x14(%rbp)
    375a:	48 63 d0             	movslq %eax,%rdx
    375d:	48 8b 45 c8          	mov    -0x38(%rbp),%rax
    3761:	48 01 d0             	add    %rdx,%rax
    3764:	c6 00 fc             	movb   $0xfc,(%rax)
    3767:	90                   	nop
    3768:	e9 bc 35 00 00       	jmp    6d29 <move_var+0x5826>
    376d:	48 81 7d f8 1a a7 88 	cmpq   $0xb88a71a,-0x8(%rbp)
    3774:	0b 
    3775:	0f 84 1e 05 00 00    	je     3c99 <move_var+0x2796>
    377b:	48 81 7d f8 1a a7 88 	cmpq   $0xb88a71a,-0x8(%rbp)
    3782:	0b 
    3783:	0f 87 a3 35 00 00    	ja     6d2c <move_var+0x5829>
    3789:	48 81 7d f8 13 a7 88 	cmpq   $0xb88a713,-0x8(%rbp)
    3790:	0b 
    3791:	0f 84 be 04 00 00    	je     3c55 <move_var+0x2752>
    3797:	48 81 7d f8 13 a7 88 	cmpq   $0xb88a713,-0x8(%rbp)
    379e:	0b 
    379f:	0f 87 87 35 00 00    	ja     6d2c <move_var+0x5829>
    37a5:	48 81 7d f8 33 a5 88 	cmpq   $0xb88a533,-0x8(%rbp)
    37ac:	0b 
    37ad:	0f 84 5b 04 00 00    	je     3c0e <move_var+0x270b>
    37b3:	48 81 7d f8 33 a5 88 	cmpq   $0xb88a533,-0x8(%rbp)
    37ba:	0b 
    37bb:	0f 87 6b 35 00 00    	ja     6d2c <move_var+0x5829>
    37c1:	48 81 7d f8 24 a5 88 	cmpq   $0xb88a524,-0x8(%rbp)
    37c8:	0b 
    37c9:	0f 84 f8 03 00 00    	je     3bc7 <move_var+0x26c4>
    37cf:	48 81 7d f8 24 a5 88 	cmpq   $0xb88a524,-0x8(%rbp)
    37d6:	0b 
    37d7:	0f 87 4f 35 00 00    	ja     6d2c <move_var+0x5829>
    37dd:	48 81 7d f8 12 a5 88 	cmpq   $0xb88a512,-0x8(%rbp)
    37e4:	0b 
    37e5:	0f 84 95 03 00 00    	je     3b80 <move_var+0x267d>
    37eb:	48 81 7d f8 12 a5 88 	cmpq   $0xb88a512,-0x8(%rbp)
    37f2:	0b 
    37f3:	0f 87 33 35 00 00    	ja     6d2c <move_var+0x5829>
    37f9:	48 81 7d f8 f1 a4 88 	cmpq   $0xb88a4f1,-0x8(%rbp)
    3800:	0b 
    3801:	0f 84 32 03 00 00    	je     3b39 <move_var+0x2636>
    3807:	48 81 7d f8 f1 a4 88 	cmpq   $0xb88a4f1,-0x8(%rbp)
    380e:	0b 
    380f:	0f 87 17 35 00 00    	ja     6d2c <move_var+0x5829>
    3815:	48 81 7d f8 e9 a4 88 	cmpq   $0xb88a4e9,-0x8(%rbp)
    381c:	0b 
    381d:	0f 84 cf 02 00 00    	je     3af2 <move_var+0x25ef>
    3823:	48 81 7d f8 e9 a4 88 	cmpq   $0xb88a4e9,-0x8(%rbp)
    382a:	0b 
    382b:	0f 87 fb 34 00 00    	ja     6d2c <move_var+0x5829>
    3831:	48 81 7d f8 d0 a4 88 	cmpq   $0xb88a4d0,-0x8(%rbp)
    3838:	0b 
    3839:	0f 84 6c 02 00 00    	je     3aab <move_var+0x25a8>
    383f:	48 81 7d f8 d0 a4 88 	cmpq   $0xb88a4d0,-0x8(%rbp)
    3846:	0b 
    3847:	0f 87 df 34 00 00    	ja     6d2c <move_var+0x5829>
    384d:	48 81 7d f8 30 79 59 	cmpq   $0x597930,-0x8(%rbp)
    3854:	00 
    3855:	0f 84 09 02 00 00    	je     3a64 <move_var+0x2561>
    385b:	48 81 7d f8 30 79 59 	cmpq   $0x597930,-0x8(%rbp)
    3862:	00 
    3863:	0f 82 c3 34 00 00    	jb     6d2c <move_var+0x5829>
    3869:	48 81 7d f8 5d 9e 88 	cmpq   $0xb889e5d,-0x8(%rbp)
    3870:	0b 
    3871:	0f 87 b5 34 00 00    	ja     6d2c <move_var+0x5829>
    3877:	48 81 7d f8 58 9e 88 	cmpq   $0xb889e58,-0x8(%rbp)
    387e:	0b 
    387f:	0f 82 a7 34 00 00    	jb     6d2c <move_var+0x5829>
    3885:	48 8b 45 f8          	mov    -0x8(%rbp),%rax
    3889:	48 2d 58 9e 88 0b    	sub    $0xb889e58,%rax
    388f:	48 83 f8 05          	cmp    $0x5,%rax
    3893:	0f 87 93 34 00 00    	ja     6d2c <move_var+0x5829>
    3899:	48 8d 14 85 00 00 00 	lea    0x0(,%rax,4),%rdx
    38a0:	00 
    38a1:	48 8d 05 40 38 00 00 	lea    0x3840(%rip),%rax        # 70e8 <_IO_stdin_used+0xe8>
    38a8:	8b 04 02             	mov    (%rdx,%rax,1),%eax
    38ab:	48 98                	cltq
    38ad:	48 8d 15 34 38 00 00 	lea    0x3834(%rip),%rdx        # 70e8 <_IO_stdin_used+0xe8>
    38b4:	48 01 d0             	add    %rdx,%rax
    38b7:	3e ff e0             	notrack jmp *%rax
    38ba:	8b 45 ec             	mov    -0x14(%rbp),%eax
    38bd:	8d 50 01             	lea    0x1(%rax),%edx
    38c0:	89 55 ec             	mov    %edx,-0x14(%rbp)
    38c3:	48 63 d0             	movslq %eax,%rdx
    38c6:	48 8b 45 c8          	mov    -0x38(%rbp),%rax
    38ca:	48 01 d0             	add    %rdx,%rax
    38cd:	c6 00 4d             	movb   $0x4d,(%rax)
    38d0:	8b 45 ec             	mov    -0x14(%rbp),%eax
    38d3:	8d 50 01             	lea    0x1(%rax),%edx
    38d6:	89 55 ec             	mov    %edx,-0x14(%rbp)
    38d9:	48 63 d0             	movslq %eax,%rdx
    38dc:	48 8b 45 c8          	mov    -0x38(%rbp),%rax
    38e0:	48 01 d0             	add    %rdx,%rax
    38e3:	c6 00 89             	movb   $0x89,(%rax)
    38e6:	8b 45 ec             	mov    -0x14(%rbp),%eax
    38e9:	8d 50 01             	lea    0x1(%rax),%edx
    38ec:	89 55 ec             	mov    %edx,-0x14(%rbp)
    38ef:	48 63 d0             	movslq %eax,%rdx
    38f2:	48 8b 45 c8          	mov    -0x38(%rbp),%rax
    38f6:	48 01 d0             	add    %rdx,%rax
    38f9:	c6 00 c2             	movb   $0xc2,(%rax)
    38fc:	e9 db 03 00 00       	jmp    3cdc <move_var+0x27d9>
    3901:	8b 45 ec             	mov    -0x14(%rbp),%eax
    3904:	8d 50 01             	lea    0x1(%rax),%edx
    3907:	89 55 ec             	mov    %edx,-0x14(%rbp)
    390a:	48 63 d0             	movslq %eax,%rdx
    390d:	48 8b 45 c8          	mov    -0x38(%rbp),%rax
    3911:	48 01 d0             	add    %rdx,%rax
    3914:	c6 00 4d             	movb   $0x4d,(%rax)
    3917:	8b 45 ec             	mov    -0x14(%rbp),%eax
    391a:	8d 50 01             	lea    0x1(%rax),%edx
    391d:	89 55 ec             	mov    %edx,-0x14(%rbp)
    3920:	48 63 d0             	movslq %eax,%rdx
    3923:	48 8b 45 c8          	mov    -0x38(%rbp),%rax
    3927:	48 01 d0             	add    %rdx,%rax
    392a:	c6 00 89             	movb   $0x89,(%rax)
    392d:	8b 45 ec             	mov    -0x14(%rbp),%eax
    3930:	8d 50 01             	lea    0x1(%rax),%edx
    3933:	89 55 ec             	mov    %edx,-0x14(%rbp)
    3936:	48 63 d0             	movslq %eax,%rdx
    3939:	48 8b 45 c8          	mov    -0x38(%rbp),%rax
    393d:	48 01 d0             	add    %rdx,%rax
    3940:	c6 00 c3             	movb   $0xc3,(%rax)
    3943:	e9 94 03 00 00       	jmp    3cdc <move_var+0x27d9>
    3948:	8b 45 ec             	mov    -0x14(%rbp),%eax
    394b:	8d 50 01             	lea    0x1(%rax),%edx
    394e:	89 55 ec             	mov    %edx,-0x14(%rbp)
    3951:	48 63 d0             	movslq %eax,%rdx
    3954:	48 8b 45 c8          	mov    -0x38(%rbp),%rax
    3958:	48 01 d0             	add    %rdx,%rax
    395b:	c6 00 4d             	movb   $0x4d,(%rax)
    395e:	8b 45 ec             	mov    -0x14(%rbp),%eax
    3961:	8d 50 01             	lea    0x1(%rax),%edx
    3964:	89 55 ec             	mov    %edx,-0x14(%rbp)
    3967:	48 63 d0             	movslq %eax,%rdx
    396a:	48 8b 45 c8          	mov    -0x38(%rbp),%rax
    396e:	48 01 d0             	add    %rdx,%rax
    3971:	c6 00 89             	movb   $0x89,(%rax)
    3974:	8b 45 ec             	mov    -0x14(%rbp),%eax
    3977:	8d 50 01             	lea    0x1(%rax),%edx
    397a:	89 55 ec             	mov    %edx,-0x14(%rbp)
    397d:	48 63 d0             	movslq %eax,%rdx
    3980:	48 8b 45 c8          	mov    -0x38(%rbp),%rax
    3984:	48 01 d0             	add    %rdx,%rax
    3987:	c6 00 c4             	movb   $0xc4,(%rax)
    398a:	e9 4d 03 00 00       	jmp    3cdc <move_var+0x27d9>
    398f:	8b 45 ec             	mov    -0x14(%rbp),%eax
    3992:	8d 50 01             	lea    0x1(%rax),%edx
    3995:	89 55 ec             	mov    %edx,-0x14(%rbp)
    3998:	48 63 d0             	movslq %eax,%rdx
    399b:	48 8b 45 c8          	mov    -0x38(%rbp),%rax
    399f:	48 01 d0             	add    %rdx,%rax
    39a2:	c6 00 4d             	movb   $0x4d,(%rax)
    39a5:	8b 45 ec             	mov    -0x14(%rbp),%eax
    39a8:	8d 50 01             	lea    0x1(%rax),%edx
    39ab:	89 55 ec             	mov    %edx,-0x14(%rbp)
    39ae:	48 63 d0             	movslq %eax,%rdx
    39b1:	48 8b 45 c8          	mov    -0x38(%rbp),%rax
    39b5:	48 01 d0             	add    %rdx,%rax
    39b8:	c6 00 89             	movb   $0x89,(%rax)
    39bb:	8b 45 ec             	mov    -0x14(%rbp),%eax
    39be:	8d 50 01             	lea    0x1(%rax),%edx
    39c1:	89 55 ec             	mov    %edx,-0x14(%rbp)
    39c4:	48 63 d0             	movslq %eax,%rdx
    39c7:	48 8b 45 c8          	mov    -0x38(%rbp),%rax
    39cb:	48 01 d0             	add    %rdx,%rax
    39ce:	c6 00 c5             	movb   $0xc5,(%rax)
    39d1:	e9 06 03 00 00       	jmp    3cdc <move_var+0x27d9>
    39d6:	8b 45 ec             	mov    -0x14(%rbp),%eax
    39d9:	8d 50 01             	lea    0x1(%rax),%edx
    39dc:	89 55 ec             	mov    %edx,-0x14(%rbp)
    39df:	48 63 d0             	movslq %eax,%rdx
    39e2:	48 8b 45 c8          	mov    -0x38(%rbp),%rax
    39e6:	48 01 d0             	add    %rdx,%rax
    39e9:	c6 00 4d             	movb   $0x4d,(%rax)
    39ec:	8b 45 ec             	mov    -0x14(%rbp),%eax
    39ef:	8d 50 01             	lea    0x1(%rax),%edx
    39f2:	89 55 ec             	mov    %edx,-0x14(%rbp)
    39f5:	48 63 d0             	movslq %eax,%rdx
    39f8:	48 8b 45 c8          	mov    -0x38(%rbp),%rax
    39fc:	48 01 d0             	add    %rdx,%rax
    39ff:	c6 00 89             	movb   $0x89,(%rax)
    3a02:	8b 45 ec             	mov    -0x14(%rbp),%eax
    3a05:	8d 50 01             	lea    0x1(%rax),%edx
    3a08:	89 55 ec             	mov    %edx,-0x14(%rbp)
    3a0b:	48 63 d0             	movslq %eax,%rdx
    3a0e:	48 8b 45 c8          	mov    -0x38(%rbp),%rax
    3a12:	48 01 d0             	add    %rdx,%rax
    3a15:	c6 00 c6             	movb   $0xc6,(%rax)
    3a18:	e9 bf 02 00 00       	jmp    3cdc <move_var+0x27d9>
    3a1d:	8b 45 ec             	mov    -0x14(%rbp),%eax
    3a20:	8d 50 01             	lea    0x1(%rax),%edx
    3a23:	89 55 ec             	mov    %edx,-0x14(%rbp)
    3a26:	48 63 d0             	movslq %eax,%rdx
    3a29:	48 8b 45 c8          	mov    -0x38(%rbp),%rax
    3a2d:	48 01 d0             	add    %rdx,%rax
    3a30:	c6 00 4d             	movb   $0x4d,(%rax)
    3a33:	8b 45 ec             	mov    -0x14(%rbp),%eax
    3a36:	8d 50 01             	lea    0x1(%rax),%edx
    3a39:	89 55 ec             	mov    %edx,-0x14(%rbp)
    3a3c:	48 63 d0             	movslq %eax,%rdx
    3a3f:	48 8b 45 c8          	mov    -0x38(%rbp),%rax
    3a43:	48 01 d0             	add    %rdx,%rax
    3a46:	c6 00 89             	movb   $0x89,(%rax)
    3a49:	8b 45 ec             	mov    -0x14(%rbp),%eax
    3a4c:	8d 50 01             	lea    0x1(%rax),%edx
    3a4f:	89 55 ec             	mov    %edx,-0x14(%rbp)
    3a52:	48 63 d0             	movslq %eax,%rdx
    3a55:	48 8b 45 c8          	mov    -0x38(%rbp),%rax
    3a59:	48 01 d0             	add    %rdx,%rax
    3a5c:	c6 00 c7             	movb   $0xc7,(%rax)
    3a5f:	e9 78 02 00 00       	jmp    3cdc <move_var+0x27d9>
    3a64:	8b 45 ec             	mov    -0x14(%rbp),%eax
    3a67:	8d 50 01             	lea    0x1(%rax),%edx
    3a6a:	89 55 ec             	mov    %edx,-0x14(%rbp)
    3a6d:	48 63 d0             	movslq %eax,%rdx
    3a70:	48 8b 45 c8          	mov    -0x38(%rbp),%rax
    3a74:	48 01 d0             	add    %rdx,%rax
    3a77:	c6 00 4d             	movb   $0x4d,(%rax)
    3a7a:	8b 45 ec             	mov    -0x14(%rbp),%eax
    3a7d:	8d 50 01             	lea    0x1(%rax),%edx
    3a80:	89 55 ec             	mov    %edx,-0x14(%rbp)
    3a83:	48 63 d0             	movslq %eax,%rdx
    3a86:	48 8b 45 c8          	mov    -0x38(%rbp),%rax
    3a8a:	48 01 d0             	add    %rdx,%rax
    3a8d:	c6 00 89             	movb   $0x89,(%rax)
    3a90:	8b 45 ec             	mov    -0x14(%rbp),%eax
    3a93:	8d 50 01             	lea    0x1(%rax),%edx
    3a96:	89 55 ec             	mov    %edx,-0x14(%rbp)
    3a99:	48 63 d0             	movslq %eax,%rdx
    3a9c:	48 8b 45 c8          	mov    -0x38(%rbp),%rax
    3aa0:	48 01 d0             	add    %rdx,%rax
    3aa3:	c6 00 c1             	movb   $0xc1,(%rax)
    3aa6:	e9 31 02 00 00       	jmp    3cdc <move_var+0x27d9>
    3aab:	8b 45 ec             	mov    -0x14(%rbp),%eax
    3aae:	8d 50 01             	lea    0x1(%rax),%edx
    3ab1:	89 55 ec             	mov    %edx,-0x14(%rbp)
    3ab4:	48 63 d0             	movslq %eax,%rdx
    3ab7:	48 8b 45 c8          	mov    -0x38(%rbp),%rax
    3abb:	48 01 d0             	add    %rdx,%rax
    3abe:	c6 00 4c             	movb   $0x4c,(%rax)
    3ac1:	8b 45 ec             	mov    -0x14(%rbp),%eax
    3ac4:	8d 50 01             	lea    0x1(%rax),%edx
    3ac7:	89 55 ec             	mov    %edx,-0x14(%rbp)
    3aca:	48 63 d0             	movslq %eax,%rdx
    3acd:	48 8b 45 c8          	mov    -0x38(%rbp),%rax
    3ad1:	48 01 d0             	add    %rdx,%rax
    3ad4:	c6 00 89             	movb   $0x89,(%rax)
    3ad7:	8b 45 ec             	mov    -0x14(%rbp),%eax
    3ada:	8d 50 01             	lea    0x1(%rax),%edx
    3add:	89 55 ec             	mov    %edx,-0x14(%rbp)
    3ae0:	48 63 d0             	movslq %eax,%rdx
    3ae3:	48 8b 45 c8          	mov    -0x38(%rbp),%rax
    3ae7:	48 01 d0             	add    %rdx,%rax
    3aea:	c6 00 c0             	movb   $0xc0,(%rax)
    3aed:	e9 ea 01 00 00       	jmp    3cdc <move_var+0x27d9>
    3af2:	8b 45 ec             	mov    -0x14(%rbp),%eax
    3af5:	8d 50 01             	lea    0x1(%rax),%edx
    3af8:	89 55 ec             	mov    %edx,-0x14(%rbp)
    3afb:	48 63 d0             	movslq %eax,%rdx
    3afe:	48 8b 45 c8          	mov    -0x38(%rbp),%rax
    3b02:	48 01 d0             	add    %rdx,%rax
    3b05:	c6 00 4c             	movb   $0x4c,(%rax)
    3b08:	8b 45 ec             	mov    -0x14(%rbp),%eax
    3b0b:	8d 50 01             	lea    0x1(%rax),%edx
    3b0e:	89 55 ec             	mov    %edx,-0x14(%rbp)
    3b11:	48 63 d0             	movslq %eax,%rdx
    3b14:	48 8b 45 c8          	mov    -0x38(%rbp),%rax
    3b18:	48 01 d0             	add    %rdx,%rax
    3b1b:	c6 00 89             	movb   $0x89,(%rax)
    3b1e:	8b 45 ec             	mov    -0x14(%rbp),%eax
    3b21:	8d 50 01             	lea    0x1(%rax),%edx
    3b24:	89 55 ec             	mov    %edx,-0x14(%rbp)
    3b27:	48 63 d0             	movslq %eax,%rdx
    3b2a:	48 8b 45 c8          	mov    -0x38(%rbp),%rax
    3b2e:	48 01 d0             	add    %rdx,%rax
    3b31:	c6 00 c5             	movb   $0xc5,(%rax)
    3b34:	e9 a3 01 00 00       	jmp    3cdc <move_var+0x27d9>
    3b39:	8b 45 ec             	mov    -0x14(%rbp),%eax
    3b3c:	8d 50 01             	lea    0x1(%rax),%edx
    3b3f:	89 55 ec             	mov    %edx,-0x14(%rbp)
    3b42:	48 63 d0             	movslq %eax,%rdx
    3b45:	48 8b 45 c8          	mov    -0x38(%rbp),%rax
    3b49:	48 01 d0             	add    %rdx,%rax
    3b4c:	c6 00 4c             	movb   $0x4c,(%rax)
    3b4f:	8b 45 ec             	mov    -0x14(%rbp),%eax
    3b52:	8d 50 01             	lea    0x1(%rax),%edx
    3b55:	89 55 ec             	mov    %edx,-0x14(%rbp)
    3b58:	48 63 d0             	movslq %eax,%rdx
    3b5b:	48 8b 45 c8          	mov    -0x38(%rbp),%rax
    3b5f:	48 01 d0             	add    %rdx,%rax
    3b62:	c6 00 89             	movb   $0x89,(%rax)
    3b65:	8b 45 ec             	mov    -0x14(%rbp),%eax
    3b68:	8d 50 01             	lea    0x1(%rax),%edx
    3b6b:	89 55 ec             	mov    %edx,-0x14(%rbp)
    3b6e:	48 63 d0             	movslq %eax,%rdx
    3b71:	48 8b 45 c8          	mov    -0x38(%rbp),%rax
    3b75:	48 01 d0             	add    %rdx,%rax
    3b78:	c6 00 c3             	movb   $0xc3,(%rax)
    3b7b:	e9 5c 01 00 00       	jmp    3cdc <move_var+0x27d9>
    3b80:	8b 45 ec             	mov    -0x14(%rbp),%eax
    3b83:	8d 50 01             	lea    0x1(%rax),%edx
    3b86:	89 55 ec             	mov    %edx,-0x14(%rbp)
    3b89:	48 63 d0             	movslq %eax,%rdx
    3b8c:	48 8b 45 c8          	mov    -0x38(%rbp),%rax
    3b90:	48 01 d0             	add    %rdx,%rax
    3b93:	c6 00 4c             	movb   $0x4c,(%rax)
    3b96:	8b 45 ec             	mov    -0x14(%rbp),%eax
    3b99:	8d 50 01             	lea    0x1(%rax),%edx
    3b9c:	89 55 ec             	mov    %edx,-0x14(%rbp)
    3b9f:	48 63 d0             	movslq %eax,%rdx
    3ba2:	48 8b 45 c8          	mov    -0x38(%rbp),%rax
    3ba6:	48 01 d0             	add    %rdx,%rax
    3ba9:	c6 00 89             	movb   $0x89,(%rax)
    3bac:	8b 45 ec             	mov    -0x14(%rbp),%eax
    3baf:	8d 50 01             	lea    0x1(%rax),%edx
    3bb2:	89 55 ec             	mov    %edx,-0x14(%rbp)
    3bb5:	48 63 d0             	movslq %eax,%rdx
    3bb8:	48 8b 45 c8          	mov    -0x38(%rbp),%rax
    3bbc:	48 01 d0             	add    %rdx,%rax
    3bbf:	c6 00 c1             	movb   $0xc1,(%rax)
    3bc2:	e9 15 01 00 00       	jmp    3cdc <move_var+0x27d9>
    3bc7:	8b 45 ec             	mov    -0x14(%rbp),%eax
    3bca:	8d 50 01             	lea    0x1(%rax),%edx
    3bcd:	89 55 ec             	mov    %edx,-0x14(%rbp)
    3bd0:	48 63 d0             	movslq %eax,%rdx
    3bd3:	48 8b 45 c8          	mov    -0x38(%rbp),%rax
    3bd7:	48 01 d0             	add    %rdx,%rax
    3bda:	c6 00 4c             	movb   $0x4c,(%rax)
    3bdd:	8b 45 ec             	mov    -0x14(%rbp),%eax
    3be0:	8d 50 01             	lea    0x1(%rax),%edx
    3be3:	89 55 ec             	mov    %edx,-0x14(%rbp)
    3be6:	48 63 d0             	movslq %eax,%rdx
    3be9:	48 8b 45 c8          	mov    -0x38(%rbp),%rax
    3bed:	48 01 d0             	add    %rdx,%rax
    3bf0:	c6 00 89             	movb   $0x89,(%rax)
    3bf3:	8b 45 ec             	mov    -0x14(%rbp),%eax
    3bf6:	8d 50 01             	lea    0x1(%rax),%edx
    3bf9:	89 55 ec             	mov    %edx,-0x14(%rbp)
    3bfc:	48 63 d0             	movslq %eax,%rdx
    3bff:	48 8b 45 c8          	mov    -0x38(%rbp),%rax
    3c03:	48 01 d0             	add    %rdx,%rax
    3c06:	c6 00 c7             	movb   $0xc7,(%rax)
    3c09:	e9 ce 00 00 00       	jmp    3cdc <move_var+0x27d9>
    3c0e:	8b 45 ec             	mov    -0x14(%rbp),%eax
    3c11:	8d 50 01             	lea    0x1(%rax),%edx
    3c14:	89 55 ec             	mov    %edx,-0x14(%rbp)
    3c17:	48 63 d0             	movslq %eax,%rdx
    3c1a:	48 8b 45 c8          	mov    -0x38(%rbp),%rax
    3c1e:	48 01 d0             	add    %rdx,%rax
    3c21:	c6 00 4c             	movb   $0x4c,(%rax)
    3c24:	8b 45 ec             	mov    -0x14(%rbp),%eax
    3c27:	8d 50 01             	lea    0x1(%rax),%edx
    3c2a:	89 55 ec             	mov    %edx,-0x14(%rbp)
    3c2d:	48 63 d0             	movslq %eax,%rdx
    3c30:	48 8b 45 c8          	mov    -0x38(%rbp),%rax
    3c34:	48 01 d0             	add    %rdx,%rax
    3c37:	c6 00 89             	movb   $0x89,(%rax)
    3c3a:	8b 45 ec             	mov    -0x14(%rbp),%eax
    3c3d:	8d 50 01             	lea    0x1(%rax),%edx
    3c40:	89 55 ec             	mov    %edx,-0x14(%rbp)
    3c43:	48 63 d0             	movslq %eax,%rdx
    3c46:	48 8b 45 c8          	mov    -0x38(%rbp),%rax
    3c4a:	48 01 d0             	add    %rdx,%rax
    3c4d:	c6 00 c2             	movb   $0xc2,(%rax)
    3c50:	e9 87 00 00 00       	jmp    3cdc <move_var+0x27d9>
    3c55:	8b 45 ec             	mov    -0x14(%rbp),%eax
    3c58:	8d 50 01             	lea    0x1(%rax),%edx
    3c5b:	89 55 ec             	mov    %edx,-0x14(%rbp)
    3c5e:	48 63 d0             	movslq %eax,%rdx
    3c61:	48 8b 45 c8          	mov    -0x38(%rbp),%rax
    3c65:	48 01 d0             	add    %rdx,%rax
    3c68:	c6 00 4c             	movb   $0x4c,(%rax)
    3c6b:	8b 45 ec             	mov    -0x14(%rbp),%eax
    3c6e:	8d 50 01             	lea    0x1(%rax),%edx
    3c71:	89 55 ec             	mov    %edx,-0x14(%rbp)
    3c74:	48 63 d0             	movslq %eax,%rdx
    3c77:	48 8b 45 c8          	mov    -0x38(%rbp),%rax
    3c7b:	48 01 d0             	add    %rdx,%rax
    3c7e:	c6 00 89             	movb   $0x89,(%rax)
    3c81:	8b 45 ec             	mov    -0x14(%rbp),%eax
    3c84:	8d 50 01             	lea    0x1(%rax),%edx
    3c87:	89 55 ec             	mov    %edx,-0x14(%rbp)
    3c8a:	48 63 d0             	movslq %eax,%rdx
    3c8d:	48 8b 45 c8          	mov    -0x38(%rbp),%rax
    3c91:	48 01 d0             	add    %rdx,%rax
    3c94:	c6 00 c6             	movb   $0xc6,(%rax)
    3c97:	eb 43                	jmp    3cdc <move_var+0x27d9>
    3c99:	8b 45 ec             	mov    -0x14(%rbp),%eax
    3c9c:	8d 50 01             	lea    0x1(%rax),%edx
    3c9f:	89 55 ec             	mov    %edx,-0x14(%rbp)
    3ca2:	48 63 d0             	movslq %eax,%rdx
    3ca5:	48 8b 45 c8          	mov    -0x38(%rbp),%rax
    3ca9:	48 01 d0             	add    %rdx,%rax
    3cac:	c6 00 4c             	movb   $0x4c,(%rax)
    3caf:	8b 45 ec             	mov    -0x14(%rbp),%eax
    3cb2:	8d 50 01             	lea    0x1(%rax),%edx
    3cb5:	89 55 ec             	mov    %edx,-0x14(%rbp)
    3cb8:	48 63 d0             	movslq %eax,%rdx
    3cbb:	48 8b 45 c8          	mov    -0x38(%rbp),%rax
    3cbf:	48 01 d0             	add    %rdx,%rax
    3cc2:	c6 00 89             	movb   $0x89,(%rax)
    3cc5:	8b 45 ec             	mov    -0x14(%rbp),%eax
    3cc8:	8d 50 01             	lea    0x1(%rax),%edx
    3ccb:	89 55 ec             	mov    %edx,-0x14(%rbp)
    3cce:	48 63 d0             	movslq %eax,%rdx
    3cd1:	48 8b 45 c8          	mov    -0x38(%rbp),%rax
    3cd5:	48 01 d0             	add    %rdx,%rax
    3cd8:	c6 00 c4             	movb   $0xc4,(%rax)
    3cdb:	90                   	nop
    3cdc:	e9 4b 30 00 00       	jmp    6d2c <move_var+0x5829>
    3ce1:	48 81 7d f8 1a a7 88 	cmpq   $0xb88a71a,-0x8(%rbp)
    3ce8:	0b 
    3ce9:	0f 84 1e 05 00 00    	je     420d <move_var+0x2d0a>
    3cef:	48 81 7d f8 1a a7 88 	cmpq   $0xb88a71a,-0x8(%rbp)
    3cf6:	0b 
    3cf7:	0f 87 32 30 00 00    	ja     6d2f <move_var+0x582c>
    3cfd:	48 81 7d f8 13 a7 88 	cmpq   $0xb88a713,-0x8(%rbp)
    3d04:	0b 
    3d05:	0f 84 be 04 00 00    	je     41c9 <move_var+0x2cc6>
    3d0b:	48 81 7d f8 13 a7 88 	cmpq   $0xb88a713,-0x8(%rbp)
    3d12:	0b 
    3d13:	0f 87 16 30 00 00    	ja     6d2f <move_var+0x582c>
    3d19:	48 81 7d f8 33 a5 88 	cmpq   $0xb88a533,-0x8(%rbp)
    3d20:	0b 
    3d21:	0f 84 5b 04 00 00    	je     4182 <move_var+0x2c7f>
    3d27:	48 81 7d f8 33 a5 88 	cmpq   $0xb88a533,-0x8(%rbp)
    3d2e:	0b 
    3d2f:	0f 87 fa 2f 00 00    	ja     6d2f <move_var+0x582c>
    3d35:	48 81 7d f8 24 a5 88 	cmpq   $0xb88a524,-0x8(%rbp)
    3d3c:	0b 
    3d3d:	0f 84 f8 03 00 00    	je     413b <move_var+0x2c38>
    3d43:	48 81 7d f8 24 a5 88 	cmpq   $0xb88a524,-0x8(%rbp)
    3d4a:	0b 
    3d4b:	0f 87 de 2f 00 00    	ja     6d2f <move_var+0x582c>
    3d51:	48 81 7d f8 12 a5 88 	cmpq   $0xb88a512,-0x8(%rbp)
    3d58:	0b 
    3d59:	0f 84 95 03 00 00    	je     40f4 <move_var+0x2bf1>
    3d5f:	48 81 7d f8 12 a5 88 	cmpq   $0xb88a512,-0x8(%rbp)
    3d66:	0b 
    3d67:	0f 87 c2 2f 00 00    	ja     6d2f <move_var+0x582c>
    3d6d:	48 81 7d f8 f1 a4 88 	cmpq   $0xb88a4f1,-0x8(%rbp)
    3d74:	0b 
    3d75:	0f 84 32 03 00 00    	je     40ad <move_var+0x2baa>
    3d7b:	48 81 7d f8 f1 a4 88 	cmpq   $0xb88a4f1,-0x8(%rbp)
    3d82:	0b 
    3d83:	0f 87 a6 2f 00 00    	ja     6d2f <move_var+0x582c>
    3d89:	48 81 7d f8 e9 a4 88 	cmpq   $0xb88a4e9,-0x8(%rbp)
    3d90:	0b 
    3d91:	0f 84 cf 02 00 00    	je     4066 <move_var+0x2b63>
    3d97:	48 81 7d f8 e9 a4 88 	cmpq   $0xb88a4e9,-0x8(%rbp)
    3d9e:	0b 
    3d9f:	0f 87 8a 2f 00 00    	ja     6d2f <move_var+0x582c>
    3da5:	48 81 7d f8 d0 a4 88 	cmpq   $0xb88a4d0,-0x8(%rbp)
    3dac:	0b 
    3dad:	0f 84 6c 02 00 00    	je     401f <move_var+0x2b1c>
    3db3:	48 81 7d f8 d0 a4 88 	cmpq   $0xb88a4d0,-0x8(%rbp)
    3dba:	0b 
    3dbb:	0f 87 6e 2f 00 00    	ja     6d2f <move_var+0x582c>
    3dc1:	48 81 7d f8 2f 79 59 	cmpq   $0x59792f,-0x8(%rbp)
    3dc8:	00 
    3dc9:	0f 84 09 02 00 00    	je     3fd8 <move_var+0x2ad5>
    3dcf:	48 81 7d f8 2f 79 59 	cmpq   $0x59792f,-0x8(%rbp)
    3dd6:	00 
    3dd7:	0f 82 52 2f 00 00    	jb     6d2f <move_var+0x582c>
    3ddd:	48 81 7d f8 5d 9e 88 	cmpq   $0xb889e5d,-0x8(%rbp)
    3de4:	0b 
    3de5:	0f 87 44 2f 00 00    	ja     6d2f <move_var+0x582c>
    3deb:	48 81 7d f8 58 9e 88 	cmpq   $0xb889e58,-0x8(%rbp)
    3df2:	0b 
    3df3:	0f 82 36 2f 00 00    	jb     6d2f <move_var+0x582c>
    3df9:	48 8b 45 f8          	mov    -0x8(%rbp),%rax
    3dfd:	48 2d 58 9e 88 0b    	sub    $0xb889e58,%rax
    3e03:	48 83 f8 05          	cmp    $0x5,%rax
    3e07:	0f 87 22 2f 00 00    	ja     6d2f <move_var+0x582c>
    3e0d:	48 8d 14 85 00 00 00 	lea    0x0(,%rax,4),%rdx
    3e14:	00 
    3e15:	48 8d 05 e4 32 00 00 	lea    0x32e4(%rip),%rax        # 7100 <_IO_stdin_used+0x100>
    3e1c:	8b 04 02             	mov    (%rdx,%rax,1),%eax
    3e1f:	48 98                	cltq
    3e21:	48 8d 15 d8 32 00 00 	lea    0x32d8(%rip),%rdx        # 7100 <_IO_stdin_used+0x100>
    3e28:	48 01 d0             	add    %rdx,%rax
    3e2b:	3e ff e0             	notrack jmp *%rax
    3e2e:	8b 45 ec             	mov    -0x14(%rbp),%eax
    3e31:	8d 50 01             	lea    0x1(%rax),%edx
    3e34:	89 55 ec             	mov    %edx,-0x14(%rbp)
    3e37:	48 63 d0             	movslq %eax,%rdx
    3e3a:	48 8b 45 c8          	mov    -0x38(%rbp),%rax
    3e3e:	48 01 d0             	add    %rdx,%rax
    3e41:	c6 00 4d             	movb   $0x4d,(%rax)
    3e44:	8b 45 ec             	mov    -0x14(%rbp),%eax
    3e47:	8d 50 01             	lea    0x1(%rax),%edx
    3e4a:	89 55 ec             	mov    %edx,-0x14(%rbp)
    3e4d:	48 63 d0             	movslq %eax,%rdx
    3e50:	48 8b 45 c8          	mov    -0x38(%rbp),%rax
    3e54:	48 01 d0             	add    %rdx,%rax
    3e57:	c6 00 89             	movb   $0x89,(%rax)
    3e5a:	8b 45 ec             	mov    -0x14(%rbp),%eax
    3e5d:	8d 50 01             	lea    0x1(%rax),%edx
    3e60:	89 55 ec             	mov    %edx,-0x14(%rbp)
    3e63:	48 63 d0             	movslq %eax,%rdx
    3e66:	48 8b 45 c8          	mov    -0x38(%rbp),%rax
    3e6a:	48 01 d0             	add    %rdx,%rax
    3e6d:	c6 00 ca             	movb   $0xca,(%rax)
    3e70:	e9 db 03 00 00       	jmp    4250 <move_var+0x2d4d>
    3e75:	8b 45 ec             	mov    -0x14(%rbp),%eax
    3e78:	8d 50 01             	lea    0x1(%rax),%edx
    3e7b:	89 55 ec             	mov    %edx,-0x14(%rbp)
    3e7e:	48 63 d0             	movslq %eax,%rdx
    3e81:	48 8b 45 c8          	mov    -0x38(%rbp),%rax
    3e85:	48 01 d0             	add    %rdx,%rax
    3e88:	c6 00 4d             	movb   $0x4d,(%rax)
    3e8b:	8b 45 ec             	mov    -0x14(%rbp),%eax
    3e8e:	8d 50 01             	lea    0x1(%rax),%edx
    3e91:	89 55 ec             	mov    %edx,-0x14(%rbp)
    3e94:	48 63 d0             	movslq %eax,%rdx
    3e97:	48 8b 45 c8          	mov    -0x38(%rbp),%rax
    3e9b:	48 01 d0             	add    %rdx,%rax
    3e9e:	c6 00 89             	movb   $0x89,(%rax)
    3ea1:	8b 45 ec             	mov    -0x14(%rbp),%eax
    3ea4:	8d 50 01             	lea    0x1(%rax),%edx
    3ea7:	89 55 ec             	mov    %edx,-0x14(%rbp)
    3eaa:	48 63 d0             	movslq %eax,%rdx
    3ead:	48 8b 45 c8          	mov    -0x38(%rbp),%rax
    3eb1:	48 01 d0             	add    %rdx,%rax
    3eb4:	c6 00 cb             	movb   $0xcb,(%rax)
    3eb7:	e9 94 03 00 00       	jmp    4250 <move_var+0x2d4d>
    3ebc:	8b 45 ec             	mov    -0x14(%rbp),%eax
    3ebf:	8d 50 01             	lea    0x1(%rax),%edx
    3ec2:	89 55 ec             	mov    %edx,-0x14(%rbp)
    3ec5:	48 63 d0             	movslq %eax,%rdx
    3ec8:	48 8b 45 c8          	mov    -0x38(%rbp),%rax
    3ecc:	48 01 d0             	add    %rdx,%rax
    3ecf:	c6 00 4d             	movb   $0x4d,(%rax)
    3ed2:	8b 45 ec             	mov    -0x14(%rbp),%eax
    3ed5:	8d 50 01             	lea    0x1(%rax),%edx
    3ed8:	89 55 ec             	mov    %edx,-0x14(%rbp)
    3edb:	48 63 d0             	movslq %eax,%rdx
    3ede:	48 8b 45 c8          	mov    -0x38(%rbp),%rax
    3ee2:	48 01 d0             	add    %rdx,%rax
    3ee5:	c6 00 89             	movb   $0x89,(%rax)
    3ee8:	8b 45 ec             	mov    -0x14(%rbp),%eax
    3eeb:	8d 50 01             	lea    0x1(%rax),%edx
    3eee:	89 55 ec             	mov    %edx,-0x14(%rbp)
    3ef1:	48 63 d0             	movslq %eax,%rdx
    3ef4:	48 8b 45 c8          	mov    -0x38(%rbp),%rax
    3ef8:	48 01 d0             	add    %rdx,%rax
    3efb:	c6 00 cc             	movb   $0xcc,(%rax)
    3efe:	e9 4d 03 00 00       	jmp    4250 <move_var+0x2d4d>
    3f03:	8b 45 ec             	mov    -0x14(%rbp),%eax
    3f06:	8d 50 01             	lea    0x1(%rax),%edx
    3f09:	89 55 ec             	mov    %edx,-0x14(%rbp)
    3f0c:	48 63 d0             	movslq %eax,%rdx
    3f0f:	48 8b 45 c8          	mov    -0x38(%rbp),%rax
    3f13:	48 01 d0             	add    %rdx,%rax
    3f16:	c6 00 4d             	movb   $0x4d,(%rax)
    3f19:	8b 45 ec             	mov    -0x14(%rbp),%eax
    3f1c:	8d 50 01             	lea    0x1(%rax),%edx
    3f1f:	89 55 ec             	mov    %edx,-0x14(%rbp)
    3f22:	48 63 d0             	movslq %eax,%rdx
    3f25:	48 8b 45 c8          	mov    -0x38(%rbp),%rax
    3f29:	48 01 d0             	add    %rdx,%rax
    3f2c:	c6 00 89             	movb   $0x89,(%rax)
    3f2f:	8b 45 ec             	mov    -0x14(%rbp),%eax
    3f32:	8d 50 01             	lea    0x1(%rax),%edx
    3f35:	89 55 ec             	mov    %edx,-0x14(%rbp)
    3f38:	48 63 d0             	movslq %eax,%rdx
    3f3b:	48 8b 45 c8          	mov    -0x38(%rbp),%rax
    3f3f:	48 01 d0             	add    %rdx,%rax
    3f42:	c6 00 cd             	movb   $0xcd,(%rax)
    3f45:	e9 06 03 00 00       	jmp    4250 <move_var+0x2d4d>
    3f4a:	8b 45 ec             	mov    -0x14(%rbp),%eax
    3f4d:	8d 50 01             	lea    0x1(%rax),%edx
    3f50:	89 55 ec             	mov    %edx,-0x14(%rbp)
    3f53:	48 63 d0             	movslq %eax,%rdx
    3f56:	48 8b 45 c8          	mov    -0x38(%rbp),%rax
    3f5a:	48 01 d0             	add    %rdx,%rax
    3f5d:	c6 00 4d             	movb   $0x4d,(%rax)
    3f60:	8b 45 ec             	mov    -0x14(%rbp),%eax
    3f63:	8d 50 01             	lea    0x1(%rax),%edx
    3f66:	89 55 ec             	mov    %edx,-0x14(%rbp)
    3f69:	48 63 d0             	movslq %eax,%rdx
    3f6c:	48 8b 45 c8          	mov    -0x38(%rbp),%rax
    3f70:	48 01 d0             	add    %rdx,%rax
    3f73:	c6 00 89             	movb   $0x89,(%rax)
    3f76:	8b 45 ec             	mov    -0x14(%rbp),%eax
    3f79:	8d 50 01             	lea    0x1(%rax),%edx
    3f7c:	89 55 ec             	mov    %edx,-0x14(%rbp)
    3f7f:	48 63 d0             	movslq %eax,%rdx
    3f82:	48 8b 45 c8          	mov    -0x38(%rbp),%rax
    3f86:	48 01 d0             	add    %rdx,%rax
    3f89:	c6 00 ce             	movb   $0xce,(%rax)
    3f8c:	e9 bf 02 00 00       	jmp    4250 <move_var+0x2d4d>
    3f91:	8b 45 ec             	mov    -0x14(%rbp),%eax
    3f94:	8d 50 01             	lea    0x1(%rax),%edx
    3f97:	89 55 ec             	mov    %edx,-0x14(%rbp)
    3f9a:	48 63 d0             	movslq %eax,%rdx
    3f9d:	48 8b 45 c8          	mov    -0x38(%rbp),%rax
    3fa1:	48 01 d0             	add    %rdx,%rax
    3fa4:	c6 00 4d             	movb   $0x4d,(%rax)
    3fa7:	8b 45 ec             	mov    -0x14(%rbp),%eax
    3faa:	8d 50 01             	lea    0x1(%rax),%edx
    3fad:	89 55 ec             	mov    %edx,-0x14(%rbp)
    3fb0:	48 63 d0             	movslq %eax,%rdx
    3fb3:	48 8b 45 c8          	mov    -0x38(%rbp),%rax
    3fb7:	48 01 d0             	add    %rdx,%rax
    3fba:	c6 00 89             	movb   $0x89,(%rax)
    3fbd:	8b 45 ec             	mov    -0x14(%rbp),%eax
    3fc0:	8d 50 01             	lea    0x1(%rax),%edx
    3fc3:	89 55 ec             	mov    %edx,-0x14(%rbp)
    3fc6:	48 63 d0             	movslq %eax,%rdx
    3fc9:	48 8b 45 c8          	mov    -0x38(%rbp),%rax
    3fcd:	48 01 d0             	add    %rdx,%rax
    3fd0:	c6 00 cf             	movb   $0xcf,(%rax)
    3fd3:	e9 78 02 00 00       	jmp    4250 <move_var+0x2d4d>
    3fd8:	8b 45 ec             	mov    -0x14(%rbp),%eax
    3fdb:	8d 50 01             	lea    0x1(%rax),%edx
    3fde:	89 55 ec             	mov    %edx,-0x14(%rbp)
    3fe1:	48 63 d0             	movslq %eax,%rdx
    3fe4:	48 8b 45 c8          	mov    -0x38(%rbp),%rax
    3fe8:	48 01 d0             	add    %rdx,%rax
    3feb:	c6 00 4d             	movb   $0x4d,(%rax)
    3fee:	8b 45 ec             	mov    -0x14(%rbp),%eax
    3ff1:	8d 50 01             	lea    0x1(%rax),%edx
    3ff4:	89 55 ec             	mov    %edx,-0x14(%rbp)
    3ff7:	48 63 d0             	movslq %eax,%rdx
    3ffa:	48 8b 45 c8          	mov    -0x38(%rbp),%rax
    3ffe:	48 01 d0             	add    %rdx,%rax
    4001:	c6 00 89             	movb   $0x89,(%rax)
    4004:	8b 45 ec             	mov    -0x14(%rbp),%eax
    4007:	8d 50 01             	lea    0x1(%rax),%edx
    400a:	89 55 ec             	mov    %edx,-0x14(%rbp)
    400d:	48 63 d0             	movslq %eax,%rdx
    4010:	48 8b 45 c8          	mov    -0x38(%rbp),%rax
    4014:	48 01 d0             	add    %rdx,%rax
    4017:	c6 00 c8             	movb   $0xc8,(%rax)
    401a:	e9 31 02 00 00       	jmp    4250 <move_var+0x2d4d>
    401f:	8b 45 ec             	mov    -0x14(%rbp),%eax
    4022:	8d 50 01             	lea    0x1(%rax),%edx
    4025:	89 55 ec             	mov    %edx,-0x14(%rbp)
    4028:	48 63 d0             	movslq %eax,%rdx
    402b:	48 8b 45 c8          	mov    -0x38(%rbp),%rax
    402f:	48 01 d0             	add    %rdx,%rax
    4032:	c6 00 4c             	movb   $0x4c,(%rax)
    4035:	8b 45 ec             	mov    -0x14(%rbp),%eax
    4038:	8d 50 01             	lea    0x1(%rax),%edx
    403b:	89 55 ec             	mov    %edx,-0x14(%rbp)
    403e:	48 63 d0             	movslq %eax,%rdx
    4041:	48 8b 45 c8          	mov    -0x38(%rbp),%rax
    4045:	48 01 d0             	add    %rdx,%rax
    4048:	c6 00 89             	movb   $0x89,(%rax)
    404b:	8b 45 ec             	mov    -0x14(%rbp),%eax
    404e:	8d 50 01             	lea    0x1(%rax),%edx
    4051:	89 55 ec             	mov    %edx,-0x14(%rbp)
    4054:	48 63 d0             	movslq %eax,%rdx
    4057:	48 8b 45 c8          	mov    -0x38(%rbp),%rax
    405b:	48 01 d0             	add    %rdx,%rax
    405e:	c6 00 c8             	movb   $0xc8,(%rax)
    4061:	e9 ea 01 00 00       	jmp    4250 <move_var+0x2d4d>
    4066:	8b 45 ec             	mov    -0x14(%rbp),%eax
    4069:	8d 50 01             	lea    0x1(%rax),%edx
    406c:	89 55 ec             	mov    %edx,-0x14(%rbp)
    406f:	48 63 d0             	movslq %eax,%rdx
    4072:	48 8b 45 c8          	mov    -0x38(%rbp),%rax
    4076:	48 01 d0             	add    %rdx,%rax
    4079:	c6 00 4c             	movb   $0x4c,(%rax)
    407c:	8b 45 ec             	mov    -0x14(%rbp),%eax
    407f:	8d 50 01             	lea    0x1(%rax),%edx
    4082:	89 55 ec             	mov    %edx,-0x14(%rbp)
    4085:	48 63 d0             	movslq %eax,%rdx
    4088:	48 8b 45 c8          	mov    -0x38(%rbp),%rax
    408c:	48 01 d0             	add    %rdx,%rax
    408f:	c6 00 89             	movb   $0x89,(%rax)
    4092:	8b 45 ec             	mov    -0x14(%rbp),%eax
    4095:	8d 50 01             	lea    0x1(%rax),%edx
    4098:	89 55 ec             	mov    %edx,-0x14(%rbp)
    409b:	48 63 d0             	movslq %eax,%rdx
    409e:	48 8b 45 c8          	mov    -0x38(%rbp),%rax
    40a2:	48 01 d0             	add    %rdx,%rax
    40a5:	c6 00 cd             	movb   $0xcd,(%rax)
    40a8:	e9 a3 01 00 00       	jmp    4250 <move_var+0x2d4d>
    40ad:	8b 45 ec             	mov    -0x14(%rbp),%eax
    40b0:	8d 50 01             	lea    0x1(%rax),%edx
    40b3:	89 55 ec             	mov    %edx,-0x14(%rbp)
    40b6:	48 63 d0             	movslq %eax,%rdx
    40b9:	48 8b 45 c8          	mov    -0x38(%rbp),%rax
    40bd:	48 01 d0             	add    %rdx,%rax
    40c0:	c6 00 4c             	movb   $0x4c,(%rax)
    40c3:	8b 45 ec             	mov    -0x14(%rbp),%eax
    40c6:	8d 50 01             	lea    0x1(%rax),%edx
    40c9:	89 55 ec             	mov    %edx,-0x14(%rbp)
    40cc:	48 63 d0             	movslq %eax,%rdx
    40cf:	48 8b 45 c8          	mov    -0x38(%rbp),%rax
    40d3:	48 01 d0             	add    %rdx,%rax
    40d6:	c6 00 89             	movb   $0x89,(%rax)
    40d9:	8b 45 ec             	mov    -0x14(%rbp),%eax
    40dc:	8d 50 01             	lea    0x1(%rax),%edx
    40df:	89 55 ec             	mov    %edx,-0x14(%rbp)
    40e2:	48 63 d0             	movslq %eax,%rdx
    40e5:	48 8b 45 c8          	mov    -0x38(%rbp),%rax
    40e9:	48 01 d0             	add    %rdx,%rax
    40ec:	c6 00 cb             	movb   $0xcb,(%rax)
    40ef:	e9 5c 01 00 00       	jmp    4250 <move_var+0x2d4d>
    40f4:	8b 45 ec             	mov    -0x14(%rbp),%eax
    40f7:	8d 50 01             	lea    0x1(%rax),%edx
    40fa:	89 55 ec             	mov    %edx,-0x14(%rbp)
    40fd:	48 63 d0             	movslq %eax,%rdx
    4100:	48 8b 45 c8          	mov    -0x38(%rbp),%rax
    4104:	48 01 d0             	add    %rdx,%rax
    4107:	c6 00 4c             	movb   $0x4c,(%rax)
    410a:	8b 45 ec             	mov    -0x14(%rbp),%eax
    410d:	8d 50 01             	lea    0x1(%rax),%edx
    4110:	89 55 ec             	mov    %edx,-0x14(%rbp)
    4113:	48 63 d0             	movslq %eax,%rdx
    4116:	48 8b 45 c8          	mov    -0x38(%rbp),%rax
    411a:	48 01 d0             	add    %rdx,%rax
    411d:	c6 00 89             	movb   $0x89,(%rax)
    4120:	8b 45 ec             	mov    -0x14(%rbp),%eax
    4123:	8d 50 01             	lea    0x1(%rax),%edx
    4126:	89 55 ec             	mov    %edx,-0x14(%rbp)
    4129:	48 63 d0             	movslq %eax,%rdx
    412c:	48 8b 45 c8          	mov    -0x38(%rbp),%rax
    4130:	48 01 d0             	add    %rdx,%rax
    4133:	c6 00 c9             	movb   $0xc9,(%rax)
    4136:	e9 15 01 00 00       	jmp    4250 <move_var+0x2d4d>
    413b:	8b 45 ec             	mov    -0x14(%rbp),%eax
    413e:	8d 50 01             	lea    0x1(%rax),%edx
    4141:	89 55 ec             	mov    %edx,-0x14(%rbp)
    4144:	48 63 d0             	movslq %eax,%rdx
    4147:	48 8b 45 c8          	mov    -0x38(%rbp),%rax
    414b:	48 01 d0             	add    %rdx,%rax
    414e:	c6 00 4c             	movb   $0x4c,(%rax)
    4151:	8b 45 ec             	mov    -0x14(%rbp),%eax
    4154:	8d 50 01             	lea    0x1(%rax),%edx
    4157:	89 55 ec             	mov    %edx,-0x14(%rbp)
    415a:	48 63 d0             	movslq %eax,%rdx
    415d:	48 8b 45 c8          	mov    -0x38(%rbp),%rax
    4161:	48 01 d0             	add    %rdx,%rax
    4164:	c6 00 89             	movb   $0x89,(%rax)
    4167:	8b 45 ec             	mov    -0x14(%rbp),%eax
    416a:	8d 50 01             	lea    0x1(%rax),%edx
    416d:	89 55 ec             	mov    %edx,-0x14(%rbp)
    4170:	48 63 d0             	movslq %eax,%rdx
    4173:	48 8b 45 c8          	mov    -0x38(%rbp),%rax
    4177:	48 01 d0             	add    %rdx,%rax
    417a:	c6 00 cf             	movb   $0xcf,(%rax)
    417d:	e9 ce 00 00 00       	jmp    4250 <move_var+0x2d4d>
    4182:	8b 45 ec             	mov    -0x14(%rbp),%eax
    4185:	8d 50 01             	lea    0x1(%rax),%edx
    4188:	89 55 ec             	mov    %edx,-0x14(%rbp)
    418b:	48 63 d0             	movslq %eax,%rdx
    418e:	48 8b 45 c8          	mov    -0x38(%rbp),%rax
    4192:	48 01 d0             	add    %rdx,%rax
    4195:	c6 00 4c             	movb   $0x4c,(%rax)
    4198:	8b 45 ec             	mov    -0x14(%rbp),%eax
    419b:	8d 50 01             	lea    0x1(%rax),%edx
    419e:	89 55 ec             	mov    %edx,-0x14(%rbp)
    41a1:	48 63 d0             	movslq %eax,%rdx
    41a4:	48 8b 45 c8          	mov    -0x38(%rbp),%rax
    41a8:	48 01 d0             	add    %rdx,%rax
    41ab:	c6 00 89             	movb   $0x89,(%rax)
    41ae:	8b 45 ec             	mov    -0x14(%rbp),%eax
    41b1:	8d 50 01             	lea    0x1(%rax),%edx
    41b4:	89 55 ec             	mov    %edx,-0x14(%rbp)
    41b7:	48 63 d0             	movslq %eax,%rdx
    41ba:	48 8b 45 c8          	mov    -0x38(%rbp),%rax
    41be:	48 01 d0             	add    %rdx,%rax
    41c1:	c6 00 ca             	movb   $0xca,(%rax)
    41c4:	e9 87 00 00 00       	jmp    4250 <move_var+0x2d4d>
    41c9:	8b 45 ec             	mov    -0x14(%rbp),%eax
    41cc:	8d 50 01             	lea    0x1(%rax),%edx
    41cf:	89 55 ec             	mov    %edx,-0x14(%rbp)
    41d2:	48 63 d0             	movslq %eax,%rdx
    41d5:	48 8b 45 c8          	mov    -0x38(%rbp),%rax
    41d9:	48 01 d0             	add    %rdx,%rax
    41dc:	c6 00 4c             	movb   $0x4c,(%rax)
    41df:	8b 45 ec             	mov    -0x14(%rbp),%eax
    41e2:	8d 50 01             	lea    0x1(%rax),%edx
    41e5:	89 55 ec             	mov    %edx,-0x14(%rbp)
    41e8:	48 63 d0             	movslq %eax,%rdx
    41eb:	48 8b 45 c8          	mov    -0x38(%rbp),%rax
    41ef:	48 01 d0             	add    %rdx,%rax
    41f2:	c6 00 89             	movb   $0x89,(%rax)
    41f5:	8b 45 ec             	mov    -0x14(%rbp),%eax
    41f8:	8d 50 01             	lea    0x1(%rax),%edx
    41fb:	89 55 ec             	mov    %edx,-0x14(%rbp)
    41fe:	48 63 d0             	movslq %eax,%rdx
    4201:	48 8b 45 c8          	mov    -0x38(%rbp),%rax
    4205:	48 01 d0             	add    %rdx,%rax
    4208:	c6 00 ce             	movb   $0xce,(%rax)
    420b:	eb 43                	jmp    4250 <move_var+0x2d4d>
    420d:	8b 45 ec             	mov    -0x14(%rbp),%eax
    4210:	8d 50 01             	lea    0x1(%rax),%edx
    4213:	89 55 ec             	mov    %edx,-0x14(%rbp)
    4216:	48 63 d0             	movslq %eax,%rdx
    4219:	48 8b 45 c8          	mov    -0x38(%rbp),%rax
    421d:	48 01 d0             	add    %rdx,%rax
    4220:	c6 00 4c             	movb   $0x4c,(%rax)
    4223:	8b 45 ec             	mov    -0x14(%rbp),%eax
    4226:	8d 50 01             	lea    0x1(%rax),%edx
    4229:	89 55 ec             	mov    %edx,-0x14(%rbp)
    422c:	48 63 d0             	movslq %eax,%rdx
    422f:	48 8b 45 c8          	mov    -0x38(%rbp),%rax
    4233:	48 01 d0             	add    %rdx,%rax
    4236:	c6 00 89             	movb   $0x89,(%rax)
    4239:	8b 45 ec             	mov    -0x14(%rbp),%eax
    423c:	8d 50 01             	lea    0x1(%rax),%edx
    423f:	89 55 ec             	mov    %edx,-0x14(%rbp)
    4242:	48 63 d0             	movslq %eax,%rdx
    4245:	48 8b 45 c8          	mov    -0x38(%rbp),%rax
    4249:	48 01 d0             	add    %rdx,%rax
    424c:	c6 00 cc             	movb   $0xcc,(%rax)
    424f:	90                   	nop
    4250:	e9 da 2a 00 00       	jmp    6d2f <move_var+0x582c>
    4255:	48 81 7d f8 1a a7 88 	cmpq   $0xb88a71a,-0x8(%rbp)
    425c:	0b 
    425d:	0f 84 03 05 00 00    	je     4766 <move_var+0x3263>
    4263:	48 81 7d f8 1a a7 88 	cmpq   $0xb88a71a,-0x8(%rbp)
    426a:	0b 
    426b:	0f 87 c1 2a 00 00    	ja     6d32 <move_var+0x582f>
    4271:	48 81 7d f8 13 a7 88 	cmpq   $0xb88a713,-0x8(%rbp)
    4278:	0b 
    4279:	0f 84 a3 04 00 00    	je     4722 <move_var+0x321f>
    427f:	48 81 7d f8 13 a7 88 	cmpq   $0xb88a713,-0x8(%rbp)
    4286:	0b 
    4287:	0f 87 a5 2a 00 00    	ja     6d32 <move_var+0x582f>
    428d:	48 81 7d f8 33 a5 88 	cmpq   $0xb88a533,-0x8(%rbp)
    4294:	0b 
    4295:	0f 84 40 04 00 00    	je     46db <move_var+0x31d8>
    429b:	48 81 7d f8 33 a5 88 	cmpq   $0xb88a533,-0x8(%rbp)
    42a2:	0b 
    42a3:	0f 87 89 2a 00 00    	ja     6d32 <move_var+0x582f>
    42a9:	48 81 7d f8 24 a5 88 	cmpq   $0xb88a524,-0x8(%rbp)
    42b0:	0b 
    42b1:	0f 84 dd 03 00 00    	je     4694 <move_var+0x3191>
    42b7:	48 81 7d f8 24 a5 88 	cmpq   $0xb88a524,-0x8(%rbp)
    42be:	0b 
    42bf:	0f 87 6d 2a 00 00    	ja     6d32 <move_var+0x582f>
    42c5:	48 81 7d f8 12 a5 88 	cmpq   $0xb88a512,-0x8(%rbp)
    42cc:	0b 
    42cd:	0f 84 7a 03 00 00    	je     464d <move_var+0x314a>
    42d3:	48 81 7d f8 12 a5 88 	cmpq   $0xb88a512,-0x8(%rbp)
    42da:	0b 
    42db:	0f 87 51 2a 00 00    	ja     6d32 <move_var+0x582f>
    42e1:	48 81 7d f8 f1 a4 88 	cmpq   $0xb88a4f1,-0x8(%rbp)
    42e8:	0b 
    42e9:	0f 84 17 03 00 00    	je     4606 <move_var+0x3103>
    42ef:	48 81 7d f8 f1 a4 88 	cmpq   $0xb88a4f1,-0x8(%rbp)
    42f6:	0b 
    42f7:	0f 87 35 2a 00 00    	ja     6d32 <move_var+0x582f>
    42fd:	48 81 7d f8 e9 a4 88 	cmpq   $0xb88a4e9,-0x8(%rbp)
    4304:	0b 
    4305:	0f 84 b4 02 00 00    	je     45bf <move_var+0x30bc>
    430b:	48 81 7d f8 e9 a4 88 	cmpq   $0xb88a4e9,-0x8(%rbp)
    4312:	0b 
    4313:	0f 87 19 2a 00 00    	ja     6d32 <move_var+0x582f>
    4319:	48 81 7d f8 5d 9e 88 	cmpq   $0xb889e5d,-0x8(%rbp)
    4320:	0b 
    4321:	0f 87 0b 2a 00 00    	ja     6d32 <move_var+0x582f>
    4327:	48 81 7d f8 58 9e 88 	cmpq   $0xb889e58,-0x8(%rbp)
    432e:	0b 
    432f:	73 21                	jae    4352 <move_var+0x2e4f>
    4331:	48 81 7d f8 2f 79 59 	cmpq   $0x59792f,-0x8(%rbp)
    4338:	00 
    4339:	0f 84 f2 01 00 00    	je     4531 <move_var+0x302e>
    433f:	48 81 7d f8 30 79 59 	cmpq   $0x597930,-0x8(%rbp)
    4346:	00 
    4347:	0f 84 2b 02 00 00    	je     4578 <move_var+0x3075>
    434d:	e9 e0 29 00 00       	jmp    6d32 <move_var+0x582f>
    4352:	48 8b 45 f8          	mov    -0x8(%rbp),%rax
    4356:	48 2d 58 9e 88 0b    	sub    $0xb889e58,%rax
    435c:	48 83 f8 05          	cmp    $0x5,%rax
    4360:	0f 87 cc 29 00 00    	ja     6d32 <move_var+0x582f>
    4366:	48 8d 14 85 00 00 00 	lea    0x0(,%rax,4),%rdx
    436d:	00 
    436e:	48 8d 05 a3 2d 00 00 	lea    0x2da3(%rip),%rax        # 7118 <_IO_stdin_used+0x118>
    4375:	8b 04 02             	mov    (%rdx,%rax,1),%eax
    4378:	48 98                	cltq
    437a:	48 8d 15 97 2d 00 00 	lea    0x2d97(%rip),%rdx        # 7118 <_IO_stdin_used+0x118>
    4381:	48 01 d0             	add    %rdx,%rax
    4384:	3e ff e0             	notrack jmp *%rax
    4387:	8b 45 ec             	mov    -0x14(%rbp),%eax
    438a:	8d 50 01             	lea    0x1(%rax),%edx
    438d:	89 55 ec             	mov    %edx,-0x14(%rbp)
    4390:	48 63 d0             	movslq %eax,%rdx
    4393:	48 8b 45 c8          	mov    -0x38(%rbp),%rax
    4397:	48 01 d0             	add    %rdx,%rax
    439a:	c6 00 49             	movb   $0x49,(%rax)
    439d:	8b 45 ec             	mov    -0x14(%rbp),%eax
    43a0:	8d 50 01             	lea    0x1(%rax),%edx
    43a3:	89 55 ec             	mov    %edx,-0x14(%rbp)
    43a6:	48 63 d0             	movslq %eax,%rdx
    43a9:	48 8b 45 c8          	mov    -0x38(%rbp),%rax
    43ad:	48 01 d0             	add    %rdx,%rax
    43b0:	c6 00 89             	movb   $0x89,(%rax)
    43b3:	8b 45 ec             	mov    -0x14(%rbp),%eax
    43b6:	8d 50 01             	lea    0x1(%rax),%edx
    43b9:	89 55 ec             	mov    %edx,-0x14(%rbp)
    43bc:	48 63 d0             	movslq %eax,%rdx
    43bf:	48 8b 45 c8          	mov    -0x38(%rbp),%rax
    43c3:	48 01 d0             	add    %rdx,%rax
    43c6:	c6 00 c2             	movb   $0xc2,(%rax)
    43c9:	e9 db 03 00 00       	jmp    47a9 <move_var+0x32a6>
    43ce:	8b 45 ec             	mov    -0x14(%rbp),%eax
    43d1:	8d 50 01             	lea    0x1(%rax),%edx
    43d4:	89 55 ec             	mov    %edx,-0x14(%rbp)
    43d7:	48 63 d0             	movslq %eax,%rdx
    43da:	48 8b 45 c8          	mov    -0x38(%rbp),%rax
    43de:	48 01 d0             	add    %rdx,%rax
    43e1:	c6 00 49             	movb   $0x49,(%rax)
    43e4:	8b 45 ec             	mov    -0x14(%rbp),%eax
    43e7:	8d 50 01             	lea    0x1(%rax),%edx
    43ea:	89 55 ec             	mov    %edx,-0x14(%rbp)
    43ed:	48 63 d0             	movslq %eax,%rdx
    43f0:	48 8b 45 c8          	mov    -0x38(%rbp),%rax
    43f4:	48 01 d0             	add    %rdx,%rax
    43f7:	c6 00 89             	movb   $0x89,(%rax)
    43fa:	8b 45 ec             	mov    -0x14(%rbp),%eax
    43fd:	8d 50 01             	lea    0x1(%rax),%edx
    4400:	89 55 ec             	mov    %edx,-0x14(%rbp)
    4403:	48 63 d0             	movslq %eax,%rdx
    4406:	48 8b 45 c8          	mov    -0x38(%rbp),%rax
    440a:	48 01 d0             	add    %rdx,%rax
    440d:	c6 00 c3             	movb   $0xc3,(%rax)
    4410:	e9 94 03 00 00       	jmp    47a9 <move_var+0x32a6>
    4415:	8b 45 ec             	mov    -0x14(%rbp),%eax
    4418:	8d 50 01             	lea    0x1(%rax),%edx
    441b:	89 55 ec             	mov    %edx,-0x14(%rbp)
    441e:	48 63 d0             	movslq %eax,%rdx
    4421:	48 8b 45 c8          	mov    -0x38(%rbp),%rax
    4425:	48 01 d0             	add    %rdx,%rax
    4428:	c6 00 49             	movb   $0x49,(%rax)
    442b:	8b 45 ec             	mov    -0x14(%rbp),%eax
    442e:	8d 50 01             	lea    0x1(%rax),%edx
    4431:	89 55 ec             	mov    %edx,-0x14(%rbp)
    4434:	48 63 d0             	movslq %eax,%rdx
    4437:	48 8b 45 c8          	mov    -0x38(%rbp),%rax
    443b:	48 01 d0             	add    %rdx,%rax
    443e:	c6 00 89             	movb   $0x89,(%rax)
    4441:	8b 45 ec             	mov    -0x14(%rbp),%eax
    4444:	8d 50 01             	lea    0x1(%rax),%edx
    4447:	89 55 ec             	mov    %edx,-0x14(%rbp)
    444a:	48 63 d0             	movslq %eax,%rdx
    444d:	48 8b 45 c8          	mov    -0x38(%rbp),%rax
    4451:	48 01 d0             	add    %rdx,%rax
    4454:	c6 00 c4             	movb   $0xc4,(%rax)
    4457:	e9 4d 03 00 00       	jmp    47a9 <move_var+0x32a6>
    445c:	8b 45 ec             	mov    -0x14(%rbp),%eax
    445f:	8d 50 01             	lea    0x1(%rax),%edx
    4462:	89 55 ec             	mov    %edx,-0x14(%rbp)
    4465:	48 63 d0             	movslq %eax,%rdx
    4468:	48 8b 45 c8          	mov    -0x38(%rbp),%rax
    446c:	48 01 d0             	add    %rdx,%rax
    446f:	c6 00 49             	movb   $0x49,(%rax)
    4472:	8b 45 ec             	mov    -0x14(%rbp),%eax
    4475:	8d 50 01             	lea    0x1(%rax),%edx
    4478:	89 55 ec             	mov    %edx,-0x14(%rbp)
    447b:	48 63 d0             	movslq %eax,%rdx
    447e:	48 8b 45 c8          	mov    -0x38(%rbp),%rax
    4482:	48 01 d0             	add    %rdx,%rax
    4485:	c6 00 89             	movb   $0x89,(%rax)
    4488:	8b 45 ec             	mov    -0x14(%rbp),%eax
    448b:	8d 50 01             	lea    0x1(%rax),%edx
    448e:	89 55 ec             	mov    %edx,-0x14(%rbp)
    4491:	48 63 d0             	movslq %eax,%rdx
    4494:	48 8b 45 c8          	mov    -0x38(%rbp),%rax
    4498:	48 01 d0             	add    %rdx,%rax
    449b:	c6 00 c5             	movb   $0xc5,(%rax)
    449e:	e9 06 03 00 00       	jmp    47a9 <move_var+0x32a6>
    44a3:	8b 45 ec             	mov    -0x14(%rbp),%eax
    44a6:	8d 50 01             	lea    0x1(%rax),%edx
    44a9:	89 55 ec             	mov    %edx,-0x14(%rbp)
    44ac:	48 63 d0             	movslq %eax,%rdx
    44af:	48 8b 45 c8          	mov    -0x38(%rbp),%rax
    44b3:	48 01 d0             	add    %rdx,%rax
    44b6:	c6 00 49             	movb   $0x49,(%rax)
    44b9:	8b 45 ec             	mov    -0x14(%rbp),%eax
    44bc:	8d 50 01             	lea    0x1(%rax),%edx
    44bf:	89 55 ec             	mov    %edx,-0x14(%rbp)
    44c2:	48 63 d0             	movslq %eax,%rdx
    44c5:	48 8b 45 c8          	mov    -0x38(%rbp),%rax
    44c9:	48 01 d0             	add    %rdx,%rax
    44cc:	c6 00 89             	movb   $0x89,(%rax)
    44cf:	8b 45 ec             	mov    -0x14(%rbp),%eax
    44d2:	8d 50 01             	lea    0x1(%rax),%edx
    44d5:	89 55 ec             	mov    %edx,-0x14(%rbp)
    44d8:	48 63 d0             	movslq %eax,%rdx
    44db:	48 8b 45 c8          	mov    -0x38(%rbp),%rax
    44df:	48 01 d0             	add    %rdx,%rax
    44e2:	c6 00 c6             	movb   $0xc6,(%rax)
    44e5:	e9 bf 02 00 00       	jmp    47a9 <move_var+0x32a6>
    44ea:	8b 45 ec             	mov    -0x14(%rbp),%eax
    44ed:	8d 50 01             	lea    0x1(%rax),%edx
    44f0:	89 55 ec             	mov    %edx,-0x14(%rbp)
    44f3:	48 63 d0             	movslq %eax,%rdx
    44f6:	48 8b 45 c8          	mov    -0x38(%rbp),%rax
    44fa:	48 01 d0             	add    %rdx,%rax
    44fd:	c6 00 49             	movb   $0x49,(%rax)
    4500:	8b 45 ec             	mov    -0x14(%rbp),%eax
    4503:	8d 50 01             	lea    0x1(%rax),%edx
    4506:	89 55 ec             	mov    %edx,-0x14(%rbp)
    4509:	48 63 d0             	movslq %eax,%rdx
    450c:	48 8b 45 c8          	mov    -0x38(%rbp),%rax
    4510:	48 01 d0             	add    %rdx,%rax
    4513:	c6 00 89             	movb   $0x89,(%rax)
    4516:	8b 45 ec             	mov    -0x14(%rbp),%eax
    4519:	8d 50 01             	lea    0x1(%rax),%edx
    451c:	89 55 ec             	mov    %edx,-0x14(%rbp)
    451f:	48 63 d0             	movslq %eax,%rdx
    4522:	48 8b 45 c8          	mov    -0x38(%rbp),%rax
    4526:	48 01 d0             	add    %rdx,%rax
    4529:	c6 00 c7             	movb   $0xc7,(%rax)
    452c:	e9 78 02 00 00       	jmp    47a9 <move_var+0x32a6>
    4531:	8b 45 ec             	mov    -0x14(%rbp),%eax
    4534:	8d 50 01             	lea    0x1(%rax),%edx
    4537:	89 55 ec             	mov    %edx,-0x14(%rbp)
    453a:	48 63 d0             	movslq %eax,%rdx
    453d:	48 8b 45 c8          	mov    -0x38(%rbp),%rax
    4541:	48 01 d0             	add    %rdx,%rax
    4544:	c6 00 49             	movb   $0x49,(%rax)
    4547:	8b 45 ec             	mov    -0x14(%rbp),%eax
    454a:	8d 50 01             	lea    0x1(%rax),%edx
    454d:	89 55 ec             	mov    %edx,-0x14(%rbp)
    4550:	48 63 d0             	movslq %eax,%rdx
    4553:	48 8b 45 c8          	mov    -0x38(%rbp),%rax
    4557:	48 01 d0             	add    %rdx,%rax
    455a:	c6 00 89             	movb   $0x89,(%rax)
    455d:	8b 45 ec             	mov    -0x14(%rbp),%eax
    4560:	8d 50 01             	lea    0x1(%rax),%edx
    4563:	89 55 ec             	mov    %edx,-0x14(%rbp)
    4566:	48 63 d0             	movslq %eax,%rdx
    4569:	48 8b 45 c8          	mov    -0x38(%rbp),%rax
    456d:	48 01 d0             	add    %rdx,%rax
    4570:	c6 00 c0             	movb   $0xc0,(%rax)
    4573:	e9 31 02 00 00       	jmp    47a9 <move_var+0x32a6>
    4578:	8b 45 ec             	mov    -0x14(%rbp),%eax
    457b:	8d 50 01             	lea    0x1(%rax),%edx
    457e:	89 55 ec             	mov    %edx,-0x14(%rbp)
    4581:	48 63 d0             	movslq %eax,%rdx
    4584:	48 8b 45 c8          	mov    -0x38(%rbp),%rax
    4588:	48 01 d0             	add    %rdx,%rax
    458b:	c6 00 49             	movb   $0x49,(%rax)
    458e:	8b 45 ec             	mov    -0x14(%rbp),%eax
    4591:	8d 50 01             	lea    0x1(%rax),%edx
    4594:	89 55 ec             	mov    %edx,-0x14(%rbp)
    4597:	48 63 d0             	movslq %eax,%rdx
    459a:	48 8b 45 c8          	mov    -0x38(%rbp),%rax
    459e:	48 01 d0             	add    %rdx,%rax
    45a1:	c6 00 89             	movb   $0x89,(%rax)
    45a4:	8b 45 ec             	mov    -0x14(%rbp),%eax
    45a7:	8d 50 01             	lea    0x1(%rax),%edx
    45aa:	89 55 ec             	mov    %edx,-0x14(%rbp)
    45ad:	48 63 d0             	movslq %eax,%rdx
    45b0:	48 8b 45 c8          	mov    -0x38(%rbp),%rax
    45b4:	48 01 d0             	add    %rdx,%rax
    45b7:	c6 00 c1             	movb   $0xc1,(%rax)
    45ba:	e9 ea 01 00 00       	jmp    47a9 <move_var+0x32a6>
    45bf:	8b 45 ec             	mov    -0x14(%rbp),%eax
    45c2:	8d 50 01             	lea    0x1(%rax),%edx
    45c5:	89 55 ec             	mov    %edx,-0x14(%rbp)
    45c8:	48 63 d0             	movslq %eax,%rdx
    45cb:	48 8b 45 c8          	mov    -0x38(%rbp),%rax
    45cf:	48 01 d0             	add    %rdx,%rax
    45d2:	c6 00 48             	movb   $0x48,(%rax)
    45d5:	8b 45 ec             	mov    -0x14(%rbp),%eax
    45d8:	8d 50 01             	lea    0x1(%rax),%edx
    45db:	89 55 ec             	mov    %edx,-0x14(%rbp)
    45de:	48 63 d0             	movslq %eax,%rdx
    45e1:	48 8b 45 c8          	mov    -0x38(%rbp),%rax
    45e5:	48 01 d0             	add    %rdx,%rax
    45e8:	c6 00 89             	movb   $0x89,(%rax)
    45eb:	8b 45 ec             	mov    -0x14(%rbp),%eax
    45ee:	8d 50 01             	lea    0x1(%rax),%edx
    45f1:	89 55 ec             	mov    %edx,-0x14(%rbp)
    45f4:	48 63 d0             	movslq %eax,%rdx
    45f7:	48 8b 45 c8          	mov    -0x38(%rbp),%rax
    45fb:	48 01 d0             	add    %rdx,%rax
    45fe:	c6 00 c5             	movb   $0xc5,(%rax)
    4601:	e9 a3 01 00 00       	jmp    47a9 <move_var+0x32a6>
    4606:	8b 45 ec             	mov    -0x14(%rbp),%eax
    4609:	8d 50 01             	lea    0x1(%rax),%edx
    460c:	89 55 ec             	mov    %edx,-0x14(%rbp)
    460f:	48 63 d0             	movslq %eax,%rdx
    4612:	48 8b 45 c8          	mov    -0x38(%rbp),%rax
    4616:	48 01 d0             	add    %rdx,%rax
    4619:	c6 00 48             	movb   $0x48,(%rax)
    461c:	8b 45 ec             	mov    -0x14(%rbp),%eax
    461f:	8d 50 01             	lea    0x1(%rax),%edx
    4622:	89 55 ec             	mov    %edx,-0x14(%rbp)
    4625:	48 63 d0             	movslq %eax,%rdx
    4628:	48 8b 45 c8          	mov    -0x38(%rbp),%rax
    462c:	48 01 d0             	add    %rdx,%rax
    462f:	c6 00 89             	movb   $0x89,(%rax)
    4632:	8b 45 ec             	mov    -0x14(%rbp),%eax
    4635:	8d 50 01             	lea    0x1(%rax),%edx
    4638:	89 55 ec             	mov    %edx,-0x14(%rbp)
    463b:	48 63 d0             	movslq %eax,%rdx
    463e:	48 8b 45 c8          	mov    -0x38(%rbp),%rax
    4642:	48 01 d0             	add    %rdx,%rax
    4645:	c6 00 c3             	movb   $0xc3,(%rax)
    4648:	e9 5c 01 00 00       	jmp    47a9 <move_var+0x32a6>
    464d:	8b 45 ec             	mov    -0x14(%rbp),%eax
    4650:	8d 50 01             	lea    0x1(%rax),%edx
    4653:	89 55 ec             	mov    %edx,-0x14(%rbp)
    4656:	48 63 d0             	movslq %eax,%rdx
    4659:	48 8b 45 c8          	mov    -0x38(%rbp),%rax
    465d:	48 01 d0             	add    %rdx,%rax
    4660:	c6 00 48             	movb   $0x48,(%rax)
    4663:	8b 45 ec             	mov    -0x14(%rbp),%eax
    4666:	8d 50 01             	lea    0x1(%rax),%edx
    4669:	89 55 ec             	mov    %edx,-0x14(%rbp)
    466c:	48 63 d0             	movslq %eax,%rdx
    466f:	48 8b 45 c8          	mov    -0x38(%rbp),%rax
    4673:	48 01 d0             	add    %rdx,%rax
    4676:	c6 00 89             	movb   $0x89,(%rax)
    4679:	8b 45 ec             	mov    -0x14(%rbp),%eax
    467c:	8d 50 01             	lea    0x1(%rax),%edx
    467f:	89 55 ec             	mov    %edx,-0x14(%rbp)
    4682:	48 63 d0             	movslq %eax,%rdx
    4685:	48 8b 45 c8          	mov    -0x38(%rbp),%rax
    4689:	48 01 d0             	add    %rdx,%rax
    468c:	c6 00 c1             	movb   $0xc1,(%rax)
    468f:	e9 15 01 00 00       	jmp    47a9 <move_var+0x32a6>
    4694:	8b 45 ec             	mov    -0x14(%rbp),%eax
    4697:	8d 50 01             	lea    0x1(%rax),%edx
    469a:	89 55 ec             	mov    %edx,-0x14(%rbp)
    469d:	48 63 d0             	movslq %eax,%rdx
    46a0:	48 8b 45 c8          	mov    -0x38(%rbp),%rax
    46a4:	48 01 d0             	add    %rdx,%rax
    46a7:	c6 00 48             	movb   $0x48,(%rax)
    46aa:	8b 45 ec             	mov    -0x14(%rbp),%eax
    46ad:	8d 50 01             	lea    0x1(%rax),%edx
    46b0:	89 55 ec             	mov    %edx,-0x14(%rbp)
    46b3:	48 63 d0             	movslq %eax,%rdx
    46b6:	48 8b 45 c8          	mov    -0x38(%rbp),%rax
    46ba:	48 01 d0             	add    %rdx,%rax
    46bd:	c6 00 89             	movb   $0x89,(%rax)
    46c0:	8b 45 ec             	mov    -0x14(%rbp),%eax
    46c3:	8d 50 01             	lea    0x1(%rax),%edx
    46c6:	89 55 ec             	mov    %edx,-0x14(%rbp)
    46c9:	48 63 d0             	movslq %eax,%rdx
    46cc:	48 8b 45 c8          	mov    -0x38(%rbp),%rax
    46d0:	48 01 d0             	add    %rdx,%rax
    46d3:	c6 00 c7             	movb   $0xc7,(%rax)
    46d6:	e9 ce 00 00 00       	jmp    47a9 <move_var+0x32a6>
    46db:	8b 45 ec             	mov    -0x14(%rbp),%eax
    46de:	8d 50 01             	lea    0x1(%rax),%edx
    46e1:	89 55 ec             	mov    %edx,-0x14(%rbp)
    46e4:	48 63 d0             	movslq %eax,%rdx
    46e7:	48 8b 45 c8          	mov    -0x38(%rbp),%rax
    46eb:	48 01 d0             	add    %rdx,%rax
    46ee:	c6 00 48             	movb   $0x48,(%rax)
    46f1:	8b 45 ec             	mov    -0x14(%rbp),%eax
    46f4:	8d 50 01             	lea    0x1(%rax),%edx
    46f7:	89 55 ec             	mov    %edx,-0x14(%rbp)
    46fa:	48 63 d0             	movslq %eax,%rdx
    46fd:	48 8b 45 c8          	mov    -0x38(%rbp),%rax
    4701:	48 01 d0             	add    %rdx,%rax
    4704:	c6 00 89             	movb   $0x89,(%rax)
    4707:	8b 45 ec             	mov    -0x14(%rbp),%eax
    470a:	8d 50 01             	lea    0x1(%rax),%edx
    470d:	89 55 ec             	mov    %edx,-0x14(%rbp)
    4710:	48 63 d0             	movslq %eax,%rdx
    4713:	48 8b 45 c8          	mov    -0x38(%rbp),%rax
    4717:	48 01 d0             	add    %rdx,%rax
    471a:	c6 00 c2             	movb   $0xc2,(%rax)
    471d:	e9 87 00 00 00       	jmp    47a9 <move_var+0x32a6>
    4722:	8b 45 ec             	mov    -0x14(%rbp),%eax
    4725:	8d 50 01             	lea    0x1(%rax),%edx
    4728:	89 55 ec             	mov    %edx,-0x14(%rbp)
    472b:	48 63 d0             	movslq %eax,%rdx
    472e:	48 8b 45 c8          	mov    -0x38(%rbp),%rax
    4732:	48 01 d0             	add    %rdx,%rax
    4735:	c6 00 48             	movb   $0x48,(%rax)
    4738:	8b 45 ec             	mov    -0x14(%rbp),%eax
    473b:	8d 50 01             	lea    0x1(%rax),%edx
    473e:	89 55 ec             	mov    %edx,-0x14(%rbp)
    4741:	48 63 d0             	movslq %eax,%rdx
    4744:	48 8b 45 c8          	mov    -0x38(%rbp),%rax
    4748:	48 01 d0             	add    %rdx,%rax
    474b:	c6 00 89             	movb   $0x89,(%rax)
    474e:	8b 45 ec             	mov    -0x14(%rbp),%eax
    4751:	8d 50 01             	lea    0x1(%rax),%edx
    4754:	89 55 ec             	mov    %edx,-0x14(%rbp)
    4757:	48 63 d0             	movslq %eax,%rdx
    475a:	48 8b 45 c8          	mov    -0x38(%rbp),%rax
    475e:	48 01 d0             	add    %rdx,%rax
    4761:	c6 00 c6             	movb   $0xc6,(%rax)
    4764:	eb 43                	jmp    47a9 <move_var+0x32a6>
    4766:	8b 45 ec             	mov    -0x14(%rbp),%eax
    4769:	8d 50 01             	lea    0x1(%rax),%edx
    476c:	89 55 ec             	mov    %edx,-0x14(%rbp)
    476f:	48 63 d0             	movslq %eax,%rdx
    4772:	48 8b 45 c8          	mov    -0x38(%rbp),%rax
    4776:	48 01 d0             	add    %rdx,%rax
    4779:	c6 00 48             	movb   $0x48,(%rax)
    477c:	8b 45 ec             	mov    -0x14(%rbp),%eax
    477f:	8d 50 01             	lea    0x1(%rax),%edx
    4782:	89 55 ec             	mov    %edx,-0x14(%rbp)
    4785:	48 63 d0             	movslq %eax,%rdx
    4788:	48 8b 45 c8          	mov    -0x38(%rbp),%rax
    478c:	48 01 d0             	add    %rdx,%rax
    478f:	c6 00 89             	movb   $0x89,(%rax)
    4792:	8b 45 ec             	mov    -0x14(%rbp),%eax
    4795:	8d 50 01             	lea    0x1(%rax),%edx
    4798:	89 55 ec             	mov    %edx,-0x14(%rbp)
    479b:	48 63 d0             	movslq %eax,%rdx
    479e:	48 8b 45 c8          	mov    -0x38(%rbp),%rax
    47a2:	48 01 d0             	add    %rdx,%rax
    47a5:	c6 00 c4             	movb   $0xc4,(%rax)
    47a8:	90                   	nop
    47a9:	e9 84 25 00 00       	jmp    6d32 <move_var+0x582f>
    47ae:	48 81 7d f8 1a a7 88 	cmpq   $0xb88a71a,-0x8(%rbp)
    47b5:	0b 
    47b6:	0f 84 03 05 00 00    	je     4cbf <move_var+0x37bc>
    47bc:	48 81 7d f8 1a a7 88 	cmpq   $0xb88a71a,-0x8(%rbp)
    47c3:	0b 
    47c4:	0f 87 6b 25 00 00    	ja     6d35 <move_var+0x5832>
    47ca:	48 81 7d f8 13 a7 88 	cmpq   $0xb88a713,-0x8(%rbp)
    47d1:	0b 
    47d2:	0f 84 a3 04 00 00    	je     4c7b <move_var+0x3778>
    47d8:	48 81 7d f8 13 a7 88 	cmpq   $0xb88a713,-0x8(%rbp)
    47df:	0b 
    47e0:	0f 87 4f 25 00 00    	ja     6d35 <move_var+0x5832>
    47e6:	48 81 7d f8 33 a5 88 	cmpq   $0xb88a533,-0x8(%rbp)
    47ed:	0b 
    47ee:	0f 84 40 04 00 00    	je     4c34 <move_var+0x3731>
    47f4:	48 81 7d f8 33 a5 88 	cmpq   $0xb88a533,-0x8(%rbp)
    47fb:	0b 
    47fc:	0f 87 33 25 00 00    	ja     6d35 <move_var+0x5832>
    4802:	48 81 7d f8 24 a5 88 	cmpq   $0xb88a524,-0x8(%rbp)
    4809:	0b 
    480a:	0f 84 dd 03 00 00    	je     4bed <move_var+0x36ea>
    4810:	48 81 7d f8 24 a5 88 	cmpq   $0xb88a524,-0x8(%rbp)
    4817:	0b 
    4818:	0f 87 17 25 00 00    	ja     6d35 <move_var+0x5832>
    481e:	48 81 7d f8 12 a5 88 	cmpq   $0xb88a512,-0x8(%rbp)
    4825:	0b 
    4826:	0f 84 7a 03 00 00    	je     4ba6 <move_var+0x36a3>
    482c:	48 81 7d f8 12 a5 88 	cmpq   $0xb88a512,-0x8(%rbp)
    4833:	0b 
    4834:	0f 87 fb 24 00 00    	ja     6d35 <move_var+0x5832>
    483a:	48 81 7d f8 f1 a4 88 	cmpq   $0xb88a4f1,-0x8(%rbp)
    4841:	0b 
    4842:	0f 84 17 03 00 00    	je     4b5f <move_var+0x365c>
    4848:	48 81 7d f8 f1 a4 88 	cmpq   $0xb88a4f1,-0x8(%rbp)
    484f:	0b 
    4850:	0f 87 df 24 00 00    	ja     6d35 <move_var+0x5832>
    4856:	48 81 7d f8 d0 a4 88 	cmpq   $0xb88a4d0,-0x8(%rbp)
    485d:	0b 
    485e:	0f 84 b4 02 00 00    	je     4b18 <move_var+0x3615>
    4864:	48 81 7d f8 d0 a4 88 	cmpq   $0xb88a4d0,-0x8(%rbp)
    486b:	0b 
    486c:	0f 87 c3 24 00 00    	ja     6d35 <move_var+0x5832>
    4872:	48 81 7d f8 5d 9e 88 	cmpq   $0xb889e5d,-0x8(%rbp)
    4879:	0b 
    487a:	0f 87 b5 24 00 00    	ja     6d35 <move_var+0x5832>
    4880:	48 81 7d f8 58 9e 88 	cmpq   $0xb889e58,-0x8(%rbp)
    4887:	0b 
    4888:	73 21                	jae    48ab <move_var+0x33a8>
    488a:	48 81 7d f8 2f 79 59 	cmpq   $0x59792f,-0x8(%rbp)
    4891:	00 
    4892:	0f 84 f2 01 00 00    	je     4a8a <move_var+0x3587>
    4898:	48 81 7d f8 30 79 59 	cmpq   $0x597930,-0x8(%rbp)
    489f:	00 
    48a0:	0f 84 2b 02 00 00    	je     4ad1 <move_var+0x35ce>
    48a6:	e9 8a 24 00 00       	jmp    6d35 <move_var+0x5832>
    48ab:	48 8b 45 f8          	mov    -0x8(%rbp),%rax
    48af:	48 2d 58 9e 88 0b    	sub    $0xb889e58,%rax
    48b5:	48 83 f8 05          	cmp    $0x5,%rax
    48b9:	0f 87 76 24 00 00    	ja     6d35 <move_var+0x5832>
    48bf:	48 8d 14 85 00 00 00 	lea    0x0(,%rax,4),%rdx
    48c6:	00 
    48c7:	48 8d 05 62 28 00 00 	lea    0x2862(%rip),%rax        # 7130 <_IO_stdin_used+0x130>
    48ce:	8b 04 02             	mov    (%rdx,%rax,1),%eax
    48d1:	48 98                	cltq
    48d3:	48 8d 15 56 28 00 00 	lea    0x2856(%rip),%rdx        # 7130 <_IO_stdin_used+0x130>
    48da:	48 01 d0             	add    %rdx,%rax
    48dd:	3e ff e0             	notrack jmp *%rax
    48e0:	8b 45 ec             	mov    -0x14(%rbp),%eax
    48e3:	8d 50 01             	lea    0x1(%rax),%edx
    48e6:	89 55 ec             	mov    %edx,-0x14(%rbp)
    48e9:	48 63 d0             	movslq %eax,%rdx
    48ec:	48 8b 45 c8          	mov    -0x38(%rbp),%rax
    48f0:	48 01 d0             	add    %rdx,%rax
    48f3:	c6 00 49             	movb   $0x49,(%rax)
    48f6:	8b 45 ec             	mov    -0x14(%rbp),%eax
    48f9:	8d 50 01             	lea    0x1(%rax),%edx
    48fc:	89 55 ec             	mov    %edx,-0x14(%rbp)
    48ff:	48 63 d0             	movslq %eax,%rdx
    4902:	48 8b 45 c8          	mov    -0x38(%rbp),%rax
    4906:	48 01 d0             	add    %rdx,%rax
    4909:	c6 00 89             	movb   $0x89,(%rax)
    490c:	8b 45 ec             	mov    -0x14(%rbp),%eax
    490f:	8d 50 01             	lea    0x1(%rax),%edx
    4912:	89 55 ec             	mov    %edx,-0x14(%rbp)
    4915:	48 63 d0             	movslq %eax,%rdx
    4918:	48 8b 45 c8          	mov    -0x38(%rbp),%rax
    491c:	48 01 d0             	add    %rdx,%rax
    491f:	c6 00 ea             	movb   $0xea,(%rax)
    4922:	e9 db 03 00 00       	jmp    4d02 <move_var+0x37ff>
    4927:	8b 45 ec             	mov    -0x14(%rbp),%eax
    492a:	8d 50 01             	lea    0x1(%rax),%edx
    492d:	89 55 ec             	mov    %edx,-0x14(%rbp)
    4930:	48 63 d0             	movslq %eax,%rdx
    4933:	48 8b 45 c8          	mov    -0x38(%rbp),%rax
    4937:	48 01 d0             	add    %rdx,%rax
    493a:	c6 00 49             	movb   $0x49,(%rax)
    493d:	8b 45 ec             	mov    -0x14(%rbp),%eax
    4940:	8d 50 01             	lea    0x1(%rax),%edx
    4943:	89 55 ec             	mov    %edx,-0x14(%rbp)
    4946:	48 63 d0             	movslq %eax,%rdx
    4949:	48 8b 45 c8          	mov    -0x38(%rbp),%rax
    494d:	48 01 d0             	add    %rdx,%rax
    4950:	c6 00 89             	movb   $0x89,(%rax)
    4953:	8b 45 ec             	mov    -0x14(%rbp),%eax
    4956:	8d 50 01             	lea    0x1(%rax),%edx
    4959:	89 55 ec             	mov    %edx,-0x14(%rbp)
    495c:	48 63 d0             	movslq %eax,%rdx
    495f:	48 8b 45 c8          	mov    -0x38(%rbp),%rax
    4963:	48 01 d0             	add    %rdx,%rax
    4966:	c6 00 eb             	movb   $0xeb,(%rax)
    4969:	e9 94 03 00 00       	jmp    4d02 <move_var+0x37ff>
    496e:	8b 45 ec             	mov    -0x14(%rbp),%eax
    4971:	8d 50 01             	lea    0x1(%rax),%edx
    4974:	89 55 ec             	mov    %edx,-0x14(%rbp)
    4977:	48 63 d0             	movslq %eax,%rdx
    497a:	48 8b 45 c8          	mov    -0x38(%rbp),%rax
    497e:	48 01 d0             	add    %rdx,%rax
    4981:	c6 00 49             	movb   $0x49,(%rax)
    4984:	8b 45 ec             	mov    -0x14(%rbp),%eax
    4987:	8d 50 01             	lea    0x1(%rax),%edx
    498a:	89 55 ec             	mov    %edx,-0x14(%rbp)
    498d:	48 63 d0             	movslq %eax,%rdx
    4990:	48 8b 45 c8          	mov    -0x38(%rbp),%rax
    4994:	48 01 d0             	add    %rdx,%rax
    4997:	c6 00 89             	movb   $0x89,(%rax)
    499a:	8b 45 ec             	mov    -0x14(%rbp),%eax
    499d:	8d 50 01             	lea    0x1(%rax),%edx
    49a0:	89 55 ec             	mov    %edx,-0x14(%rbp)
    49a3:	48 63 d0             	movslq %eax,%rdx
    49a6:	48 8b 45 c8          	mov    -0x38(%rbp),%rax
    49aa:	48 01 d0             	add    %rdx,%rax
    49ad:	c6 00 ec             	movb   $0xec,(%rax)
    49b0:	e9 4d 03 00 00       	jmp    4d02 <move_var+0x37ff>
    49b5:	8b 45 ec             	mov    -0x14(%rbp),%eax
    49b8:	8d 50 01             	lea    0x1(%rax),%edx
    49bb:	89 55 ec             	mov    %edx,-0x14(%rbp)
    49be:	48 63 d0             	movslq %eax,%rdx
    49c1:	48 8b 45 c8          	mov    -0x38(%rbp),%rax
    49c5:	48 01 d0             	add    %rdx,%rax
    49c8:	c6 00 49             	movb   $0x49,(%rax)
    49cb:	8b 45 ec             	mov    -0x14(%rbp),%eax
    49ce:	8d 50 01             	lea    0x1(%rax),%edx
    49d1:	89 55 ec             	mov    %edx,-0x14(%rbp)
    49d4:	48 63 d0             	movslq %eax,%rdx
    49d7:	48 8b 45 c8          	mov    -0x38(%rbp),%rax
    49db:	48 01 d0             	add    %rdx,%rax
    49de:	c6 00 89             	movb   $0x89,(%rax)
    49e1:	8b 45 ec             	mov    -0x14(%rbp),%eax
    49e4:	8d 50 01             	lea    0x1(%rax),%edx
    49e7:	89 55 ec             	mov    %edx,-0x14(%rbp)
    49ea:	48 63 d0             	movslq %eax,%rdx
    49ed:	48 8b 45 c8          	mov    -0x38(%rbp),%rax
    49f1:	48 01 d0             	add    %rdx,%rax
    49f4:	c6 00 ed             	movb   $0xed,(%rax)
    49f7:	e9 06 03 00 00       	jmp    4d02 <move_var+0x37ff>
    49fc:	8b 45 ec             	mov    -0x14(%rbp),%eax
    49ff:	8d 50 01             	lea    0x1(%rax),%edx
    4a02:	89 55 ec             	mov    %edx,-0x14(%rbp)
    4a05:	48 63 d0             	movslq %eax,%rdx
    4a08:	48 8b 45 c8          	mov    -0x38(%rbp),%rax
    4a0c:	48 01 d0             	add    %rdx,%rax
    4a0f:	c6 00 49             	movb   $0x49,(%rax)
    4a12:	8b 45 ec             	mov    -0x14(%rbp),%eax
    4a15:	8d 50 01             	lea    0x1(%rax),%edx
    4a18:	89 55 ec             	mov    %edx,-0x14(%rbp)
    4a1b:	48 63 d0             	movslq %eax,%rdx
    4a1e:	48 8b 45 c8          	mov    -0x38(%rbp),%rax
    4a22:	48 01 d0             	add    %rdx,%rax
    4a25:	c6 00 89             	movb   $0x89,(%rax)
    4a28:	8b 45 ec             	mov    -0x14(%rbp),%eax
    4a2b:	8d 50 01             	lea    0x1(%rax),%edx
    4a2e:	89 55 ec             	mov    %edx,-0x14(%rbp)
    4a31:	48 63 d0             	movslq %eax,%rdx
    4a34:	48 8b 45 c8          	mov    -0x38(%rbp),%rax
    4a38:	48 01 d0             	add    %rdx,%rax
    4a3b:	c6 00 ee             	movb   $0xee,(%rax)
    4a3e:	e9 bf 02 00 00       	jmp    4d02 <move_var+0x37ff>
    4a43:	8b 45 ec             	mov    -0x14(%rbp),%eax
    4a46:	8d 50 01             	lea    0x1(%rax),%edx
    4a49:	89 55 ec             	mov    %edx,-0x14(%rbp)
    4a4c:	48 63 d0             	movslq %eax,%rdx
    4a4f:	48 8b 45 c8          	mov    -0x38(%rbp),%rax
    4a53:	48 01 d0             	add    %rdx,%rax
    4a56:	c6 00 49             	movb   $0x49,(%rax)
    4a59:	8b 45 ec             	mov    -0x14(%rbp),%eax
    4a5c:	8d 50 01             	lea    0x1(%rax),%edx
    4a5f:	89 55 ec             	mov    %edx,-0x14(%rbp)
    4a62:	48 63 d0             	movslq %eax,%rdx
    4a65:	48 8b 45 c8          	mov    -0x38(%rbp),%rax
    4a69:	48 01 d0             	add    %rdx,%rax
    4a6c:	c6 00 89             	movb   $0x89,(%rax)
    4a6f:	8b 45 ec             	mov    -0x14(%rbp),%eax
    4a72:	8d 50 01             	lea    0x1(%rax),%edx
    4a75:	89 55 ec             	mov    %edx,-0x14(%rbp)
    4a78:	48 63 d0             	movslq %eax,%rdx
    4a7b:	48 8b 45 c8          	mov    -0x38(%rbp),%rax
    4a7f:	48 01 d0             	add    %rdx,%rax
    4a82:	c6 00 ef             	movb   $0xef,(%rax)
    4a85:	e9 78 02 00 00       	jmp    4d02 <move_var+0x37ff>
    4a8a:	8b 45 ec             	mov    -0x14(%rbp),%eax
    4a8d:	8d 50 01             	lea    0x1(%rax),%edx
    4a90:	89 55 ec             	mov    %edx,-0x14(%rbp)
    4a93:	48 63 d0             	movslq %eax,%rdx
    4a96:	48 8b 45 c8          	mov    -0x38(%rbp),%rax
    4a9a:	48 01 d0             	add    %rdx,%rax
    4a9d:	c6 00 49             	movb   $0x49,(%rax)
    4aa0:	8b 45 ec             	mov    -0x14(%rbp),%eax
    4aa3:	8d 50 01             	lea    0x1(%rax),%edx
    4aa6:	89 55 ec             	mov    %edx,-0x14(%rbp)
    4aa9:	48 63 d0             	movslq %eax,%rdx
    4aac:	48 8b 45 c8          	mov    -0x38(%rbp),%rax
    4ab0:	48 01 d0             	add    %rdx,%rax
    4ab3:	c6 00 89             	movb   $0x89,(%rax)
    4ab6:	8b 45 ec             	mov    -0x14(%rbp),%eax
    4ab9:	8d 50 01             	lea    0x1(%rax),%edx
    4abc:	89 55 ec             	mov    %edx,-0x14(%rbp)
    4abf:	48 63 d0             	movslq %eax,%rdx
    4ac2:	48 8b 45 c8          	mov    -0x38(%rbp),%rax
    4ac6:	48 01 d0             	add    %rdx,%rax
    4ac9:	c6 00 e8             	movb   $0xe8,(%rax)
    4acc:	e9 31 02 00 00       	jmp    4d02 <move_var+0x37ff>
    4ad1:	8b 45 ec             	mov    -0x14(%rbp),%eax
    4ad4:	8d 50 01             	lea    0x1(%rax),%edx
    4ad7:	89 55 ec             	mov    %edx,-0x14(%rbp)
    4ada:	48 63 d0             	movslq %eax,%rdx
    4add:	48 8b 45 c8          	mov    -0x38(%rbp),%rax
    4ae1:	48 01 d0             	add    %rdx,%rax
    4ae4:	c6 00 49             	movb   $0x49,(%rax)
    4ae7:	8b 45 ec             	mov    -0x14(%rbp),%eax
    4aea:	8d 50 01             	lea    0x1(%rax),%edx
    4aed:	89 55 ec             	mov    %edx,-0x14(%rbp)
    4af0:	48 63 d0             	movslq %eax,%rdx
    4af3:	48 8b 45 c8          	mov    -0x38(%rbp),%rax
    4af7:	48 01 d0             	add    %rdx,%rax
    4afa:	c6 00 89             	movb   $0x89,(%rax)
    4afd:	8b 45 ec             	mov    -0x14(%rbp),%eax
    4b00:	8d 50 01             	lea    0x1(%rax),%edx
    4b03:	89 55 ec             	mov    %edx,-0x14(%rbp)
    4b06:	48 63 d0             	movslq %eax,%rdx
    4b09:	48 8b 45 c8          	mov    -0x38(%rbp),%rax
    4b0d:	48 01 d0             	add    %rdx,%rax
    4b10:	c6 00 e9             	movb   $0xe9,(%rax)
    4b13:	e9 ea 01 00 00       	jmp    4d02 <move_var+0x37ff>
    4b18:	8b 45 ec             	mov    -0x14(%rbp),%eax
    4b1b:	8d 50 01             	lea    0x1(%rax),%edx
    4b1e:	89 55 ec             	mov    %edx,-0x14(%rbp)
    4b21:	48 63 d0             	movslq %eax,%rdx
    4b24:	48 8b 45 c8          	mov    -0x38(%rbp),%rax
    4b28:	48 01 d0             	add    %rdx,%rax
    4b2b:	c6 00 48             	movb   $0x48,(%rax)
    4b2e:	8b 45 ec             	mov    -0x14(%rbp),%eax
    4b31:	8d 50 01             	lea    0x1(%rax),%edx
    4b34:	89 55 ec             	mov    %edx,-0x14(%rbp)
    4b37:	48 63 d0             	movslq %eax,%rdx
    4b3a:	48 8b 45 c8          	mov    -0x38(%rbp),%rax
    4b3e:	48 01 d0             	add    %rdx,%rax
    4b41:	c6 00 89             	movb   $0x89,(%rax)
    4b44:	8b 45 ec             	mov    -0x14(%rbp),%eax
    4b47:	8d 50 01             	lea    0x1(%rax),%edx
    4b4a:	89 55 ec             	mov    %edx,-0x14(%rbp)
    4b4d:	48 63 d0             	movslq %eax,%rdx
    4b50:	48 8b 45 c8          	mov    -0x38(%rbp),%rax
    4b54:	48 01 d0             	add    %rdx,%rax
    4b57:	c6 00 e8             	movb   $0xe8,(%rax)
    4b5a:	e9 a3 01 00 00       	jmp    4d02 <move_var+0x37ff>
    4b5f:	8b 45 ec             	mov    -0x14(%rbp),%eax
    4b62:	8d 50 01             	lea    0x1(%rax),%edx
    4b65:	89 55 ec             	mov    %edx,-0x14(%rbp)
    4b68:	48 63 d0             	movslq %eax,%rdx
    4b6b:	48 8b 45 c8          	mov    -0x38(%rbp),%rax
    4b6f:	48 01 d0             	add    %rdx,%rax
    4b72:	c6 00 48             	movb   $0x48,(%rax)
    4b75:	8b 45 ec             	mov    -0x14(%rbp),%eax
    4b78:	8d 50 01             	lea    0x1(%rax),%edx
    4b7b:	89 55 ec             	mov    %edx,-0x14(%rbp)
    4b7e:	48 63 d0             	movslq %eax,%rdx
    4b81:	48 8b 45 c8          	mov    -0x38(%rbp),%rax
    4b85:	48 01 d0             	add    %rdx,%rax
    4b88:	c6 00 89             	movb   $0x89,(%rax)
    4b8b:	8b 45 ec             	mov    -0x14(%rbp),%eax
    4b8e:	8d 50 01             	lea    0x1(%rax),%edx
    4b91:	89 55 ec             	mov    %edx,-0x14(%rbp)
    4b94:	48 63 d0             	movslq %eax,%rdx
    4b97:	48 8b 45 c8          	mov    -0x38(%rbp),%rax
    4b9b:	48 01 d0             	add    %rdx,%rax
    4b9e:	c6 00 eb             	movb   $0xeb,(%rax)
    4ba1:	e9 5c 01 00 00       	jmp    4d02 <move_var+0x37ff>
    4ba6:	8b 45 ec             	mov    -0x14(%rbp),%eax
    4ba9:	8d 50 01             	lea    0x1(%rax),%edx
    4bac:	89 55 ec             	mov    %edx,-0x14(%rbp)
    4baf:	48 63 d0             	movslq %eax,%rdx
    4bb2:	48 8b 45 c8          	mov    -0x38(%rbp),%rax
    4bb6:	48 01 d0             	add    %rdx,%rax
    4bb9:	c6 00 48             	movb   $0x48,(%rax)
    4bbc:	8b 45 ec             	mov    -0x14(%rbp),%eax
    4bbf:	8d 50 01             	lea    0x1(%rax),%edx
    4bc2:	89 55 ec             	mov    %edx,-0x14(%rbp)
    4bc5:	48 63 d0             	movslq %eax,%rdx
    4bc8:	48 8b 45 c8          	mov    -0x38(%rbp),%rax
    4bcc:	48 01 d0             	add    %rdx,%rax
    4bcf:	c6 00 89             	movb   $0x89,(%rax)
    4bd2:	8b 45 ec             	mov    -0x14(%rbp),%eax
    4bd5:	8d 50 01             	lea    0x1(%rax),%edx
    4bd8:	89 55 ec             	mov    %edx,-0x14(%rbp)
    4bdb:	48 63 d0             	movslq %eax,%rdx
    4bde:	48 8b 45 c8          	mov    -0x38(%rbp),%rax
    4be2:	48 01 d0             	add    %rdx,%rax
    4be5:	c6 00 e9             	movb   $0xe9,(%rax)
    4be8:	e9 15 01 00 00       	jmp    4d02 <move_var+0x37ff>
    4bed:	8b 45 ec             	mov    -0x14(%rbp),%eax
    4bf0:	8d 50 01             	lea    0x1(%rax),%edx
    4bf3:	89 55 ec             	mov    %edx,-0x14(%rbp)
    4bf6:	48 63 d0             	movslq %eax,%rdx
    4bf9:	48 8b 45 c8          	mov    -0x38(%rbp),%rax
    4bfd:	48 01 d0             	add    %rdx,%rax
    4c00:	c6 00 48             	movb   $0x48,(%rax)
    4c03:	8b 45 ec             	mov    -0x14(%rbp),%eax
    4c06:	8d 50 01             	lea    0x1(%rax),%edx
    4c09:	89 55 ec             	mov    %edx,-0x14(%rbp)
    4c0c:	48 63 d0             	movslq %eax,%rdx
    4c0f:	48 8b 45 c8          	mov    -0x38(%rbp),%rax
    4c13:	48 01 d0             	add    %rdx,%rax
    4c16:	c6 00 89             	movb   $0x89,(%rax)
    4c19:	8b 45 ec             	mov    -0x14(%rbp),%eax
    4c1c:	8d 50 01             	lea    0x1(%rax),%edx
    4c1f:	89 55 ec             	mov    %edx,-0x14(%rbp)
    4c22:	48 63 d0             	movslq %eax,%rdx
    4c25:	48 8b 45 c8          	mov    -0x38(%rbp),%rax
    4c29:	48 01 d0             	add    %rdx,%rax
    4c2c:	c6 00 ef             	movb   $0xef,(%rax)
    4c2f:	e9 ce 00 00 00       	jmp    4d02 <move_var+0x37ff>
    4c34:	8b 45 ec             	mov    -0x14(%rbp),%eax
    4c37:	8d 50 01             	lea    0x1(%rax),%edx
    4c3a:	89 55 ec             	mov    %edx,-0x14(%rbp)
    4c3d:	48 63 d0             	movslq %eax,%rdx
    4c40:	48 8b 45 c8          	mov    -0x38(%rbp),%rax
    4c44:	48 01 d0             	add    %rdx,%rax
    4c47:	c6 00 48             	movb   $0x48,(%rax)
    4c4a:	8b 45 ec             	mov    -0x14(%rbp),%eax
    4c4d:	8d 50 01             	lea    0x1(%rax),%edx
    4c50:	89 55 ec             	mov    %edx,-0x14(%rbp)
    4c53:	48 63 d0             	movslq %eax,%rdx
    4c56:	48 8b 45 c8          	mov    -0x38(%rbp),%rax
    4c5a:	48 01 d0             	add    %rdx,%rax
    4c5d:	c6 00 89             	movb   $0x89,(%rax)
    4c60:	8b 45 ec             	mov    -0x14(%rbp),%eax
    4c63:	8d 50 01             	lea    0x1(%rax),%edx
    4c66:	89 55 ec             	mov    %edx,-0x14(%rbp)
    4c69:	48 63 d0             	movslq %eax,%rdx
    4c6c:	48 8b 45 c8          	mov    -0x38(%rbp),%rax
    4c70:	48 01 d0             	add    %rdx,%rax
    4c73:	c6 00 ea             	movb   $0xea,(%rax)
    4c76:	e9 87 00 00 00       	jmp    4d02 <move_var+0x37ff>
    4c7b:	8b 45 ec             	mov    -0x14(%rbp),%eax
    4c7e:	8d 50 01             	lea    0x1(%rax),%edx
    4c81:	89 55 ec             	mov    %edx,-0x14(%rbp)
    4c84:	48 63 d0             	movslq %eax,%rdx
    4c87:	48 8b 45 c8          	mov    -0x38(%rbp),%rax
    4c8b:	48 01 d0             	add    %rdx,%rax
    4c8e:	c6 00 48             	movb   $0x48,(%rax)
    4c91:	8b 45 ec             	mov    -0x14(%rbp),%eax
    4c94:	8d 50 01             	lea    0x1(%rax),%edx
    4c97:	89 55 ec             	mov    %edx,-0x14(%rbp)
    4c9a:	48 63 d0             	movslq %eax,%rdx
    4c9d:	48 8b 45 c8          	mov    -0x38(%rbp),%rax
    4ca1:	48 01 d0             	add    %rdx,%rax
    4ca4:	c6 00 89             	movb   $0x89,(%rax)
    4ca7:	8b 45 ec             	mov    -0x14(%rbp),%eax
    4caa:	8d 50 01             	lea    0x1(%rax),%edx
    4cad:	89 55 ec             	mov    %edx,-0x14(%rbp)
    4cb0:	48 63 d0             	movslq %eax,%rdx
    4cb3:	48 8b 45 c8          	mov    -0x38(%rbp),%rax
    4cb7:	48 01 d0             	add    %rdx,%rax
    4cba:	c6 00 ee             	movb   $0xee,(%rax)
    4cbd:	eb 43                	jmp    4d02 <move_var+0x37ff>
    4cbf:	8b 45 ec             	mov    -0x14(%rbp),%eax
    4cc2:	8d 50 01             	lea    0x1(%rax),%edx
    4cc5:	89 55 ec             	mov    %edx,-0x14(%rbp)
    4cc8:	48 63 d0             	movslq %eax,%rdx
    4ccb:	48 8b 45 c8          	mov    -0x38(%rbp),%rax
    4ccf:	48 01 d0             	add    %rdx,%rax
    4cd2:	c6 00 48             	movb   $0x48,(%rax)
    4cd5:	8b 45 ec             	mov    -0x14(%rbp),%eax
    4cd8:	8d 50 01             	lea    0x1(%rax),%edx
    4cdb:	89 55 ec             	mov    %edx,-0x14(%rbp)
    4cde:	48 63 d0             	movslq %eax,%rdx
    4ce1:	48 8b 45 c8          	mov    -0x38(%rbp),%rax
    4ce5:	48 01 d0             	add    %rdx,%rax
    4ce8:	c6 00 89             	movb   $0x89,(%rax)
    4ceb:	8b 45 ec             	mov    -0x14(%rbp),%eax
    4cee:	8d 50 01             	lea    0x1(%rax),%edx
    4cf1:	89 55 ec             	mov    %edx,-0x14(%rbp)
    4cf4:	48 63 d0             	movslq %eax,%rdx
    4cf7:	48 8b 45 c8          	mov    -0x38(%rbp),%rax
    4cfb:	48 01 d0             	add    %rdx,%rax
    4cfe:	c6 00 ec             	movb   $0xec,(%rax)
    4d01:	90                   	nop
    4d02:	e9 2e 20 00 00       	jmp    6d35 <move_var+0x5832>
    4d07:	48 81 7d f8 1a a7 88 	cmpq   $0xb88a71a,-0x8(%rbp)
    4d0e:	0b 
    4d0f:	0f 84 03 05 00 00    	je     5218 <move_var+0x3d15>
    4d15:	48 81 7d f8 1a a7 88 	cmpq   $0xb88a71a,-0x8(%rbp)
    4d1c:	0b 
    4d1d:	0f 87 15 20 00 00    	ja     6d38 <move_var+0x5835>
    4d23:	48 81 7d f8 13 a7 88 	cmpq   $0xb88a713,-0x8(%rbp)
    4d2a:	0b 
    4d2b:	0f 84 a3 04 00 00    	je     51d4 <move_var+0x3cd1>
    4d31:	48 81 7d f8 13 a7 88 	cmpq   $0xb88a713,-0x8(%rbp)
    4d38:	0b 
    4d39:	0f 87 f9 1f 00 00    	ja     6d38 <move_var+0x5835>
    4d3f:	48 81 7d f8 33 a5 88 	cmpq   $0xb88a533,-0x8(%rbp)
    4d46:	0b 
    4d47:	0f 84 40 04 00 00    	je     518d <move_var+0x3c8a>
    4d4d:	48 81 7d f8 33 a5 88 	cmpq   $0xb88a533,-0x8(%rbp)
    4d54:	0b 
    4d55:	0f 87 dd 1f 00 00    	ja     6d38 <move_var+0x5835>
    4d5b:	48 81 7d f8 24 a5 88 	cmpq   $0xb88a524,-0x8(%rbp)
    4d62:	0b 
    4d63:	0f 84 dd 03 00 00    	je     5146 <move_var+0x3c43>
    4d69:	48 81 7d f8 24 a5 88 	cmpq   $0xb88a524,-0x8(%rbp)
    4d70:	0b 
    4d71:	0f 87 c1 1f 00 00    	ja     6d38 <move_var+0x5835>
    4d77:	48 81 7d f8 12 a5 88 	cmpq   $0xb88a512,-0x8(%rbp)
    4d7e:	0b 
    4d7f:	0f 84 7a 03 00 00    	je     50ff <move_var+0x3bfc>
    4d85:	48 81 7d f8 12 a5 88 	cmpq   $0xb88a512,-0x8(%rbp)
    4d8c:	0b 
    4d8d:	0f 87 a5 1f 00 00    	ja     6d38 <move_var+0x5835>
    4d93:	48 81 7d f8 e9 a4 88 	cmpq   $0xb88a4e9,-0x8(%rbp)
    4d9a:	0b 
    4d9b:	0f 84 17 03 00 00    	je     50b8 <move_var+0x3bb5>
    4da1:	48 81 7d f8 e9 a4 88 	cmpq   $0xb88a4e9,-0x8(%rbp)
    4da8:	0b 
    4da9:	0f 87 89 1f 00 00    	ja     6d38 <move_var+0x5835>
    4daf:	48 81 7d f8 d0 a4 88 	cmpq   $0xb88a4d0,-0x8(%rbp)
    4db6:	0b 
    4db7:	0f 84 b4 02 00 00    	je     5071 <move_var+0x3b6e>
    4dbd:	48 81 7d f8 d0 a4 88 	cmpq   $0xb88a4d0,-0x8(%rbp)
    4dc4:	0b 
    4dc5:	0f 87 6d 1f 00 00    	ja     6d38 <move_var+0x5835>
    4dcb:	48 81 7d f8 5d 9e 88 	cmpq   $0xb889e5d,-0x8(%rbp)
    4dd2:	0b 
    4dd3:	0f 87 5f 1f 00 00    	ja     6d38 <move_var+0x5835>
    4dd9:	48 81 7d f8 58 9e 88 	cmpq   $0xb889e58,-0x8(%rbp)
    4de0:	0b 
    4de1:	73 21                	jae    4e04 <move_var+0x3901>
    4de3:	48 81 7d f8 2f 79 59 	cmpq   $0x59792f,-0x8(%rbp)
    4dea:	00 
    4deb:	0f 84 f2 01 00 00    	je     4fe3 <move_var+0x3ae0>
    4df1:	48 81 7d f8 30 79 59 	cmpq   $0x597930,-0x8(%rbp)
    4df8:	00 
    4df9:	0f 84 2b 02 00 00    	je     502a <move_var+0x3b27>
    4dff:	e9 34 1f 00 00       	jmp    6d38 <move_var+0x5835>
    4e04:	48 8b 45 f8          	mov    -0x8(%rbp),%rax
    4e08:	48 2d 58 9e 88 0b    	sub    $0xb889e58,%rax
    4e0e:	48 83 f8 05          	cmp    $0x5,%rax
    4e12:	0f 87 20 1f 00 00    	ja     6d38 <move_var+0x5835>
    4e18:	48 8d 14 85 00 00 00 	lea    0x0(,%rax,4),%rdx
    4e1f:	00 
    4e20:	48 8d 05 21 23 00 00 	lea    0x2321(%rip),%rax        # 7148 <_IO_stdin_used+0x148>
    4e27:	8b 04 02             	mov    (%rdx,%rax,1),%eax
    4e2a:	48 98                	cltq
    4e2c:	48 8d 15 15 23 00 00 	lea    0x2315(%rip),%rdx        # 7148 <_IO_stdin_used+0x148>
    4e33:	48 01 d0             	add    %rdx,%rax
    4e36:	3e ff e0             	notrack jmp *%rax
    4e39:	8b 45 ec             	mov    -0x14(%rbp),%eax
    4e3c:	8d 50 01             	lea    0x1(%rax),%edx
    4e3f:	89 55 ec             	mov    %edx,-0x14(%rbp)
    4e42:	48 63 d0             	movslq %eax,%rdx
    4e45:	48 8b 45 c8          	mov    -0x38(%rbp),%rax
    4e49:	48 01 d0             	add    %rdx,%rax
    4e4c:	c6 00 49             	movb   $0x49,(%rax)
    4e4f:	8b 45 ec             	mov    -0x14(%rbp),%eax
    4e52:	8d 50 01             	lea    0x1(%rax),%edx
    4e55:	89 55 ec             	mov    %edx,-0x14(%rbp)
    4e58:	48 63 d0             	movslq %eax,%rdx
    4e5b:	48 8b 45 c8          	mov    -0x38(%rbp),%rax
    4e5f:	48 01 d0             	add    %rdx,%rax
    4e62:	c6 00 89             	movb   $0x89,(%rax)
    4e65:	8b 45 ec             	mov    -0x14(%rbp),%eax
    4e68:	8d 50 01             	lea    0x1(%rax),%edx
    4e6b:	89 55 ec             	mov    %edx,-0x14(%rbp)
    4e6e:	48 63 d0             	movslq %eax,%rdx
    4e71:	48 8b 45 c8          	mov    -0x38(%rbp),%rax
    4e75:	48 01 d0             	add    %rdx,%rax
    4e78:	c6 00 da             	movb   $0xda,(%rax)
    4e7b:	e9 db 03 00 00       	jmp    525b <move_var+0x3d58>
    4e80:	8b 45 ec             	mov    -0x14(%rbp),%eax
    4e83:	8d 50 01             	lea    0x1(%rax),%edx
    4e86:	89 55 ec             	mov    %edx,-0x14(%rbp)
    4e89:	48 63 d0             	movslq %eax,%rdx
    4e8c:	48 8b 45 c8          	mov    -0x38(%rbp),%rax
    4e90:	48 01 d0             	add    %rdx,%rax
    4e93:	c6 00 49             	movb   $0x49,(%rax)
    4e96:	8b 45 ec             	mov    -0x14(%rbp),%eax
    4e99:	8d 50 01             	lea    0x1(%rax),%edx
    4e9c:	89 55 ec             	mov    %edx,-0x14(%rbp)
    4e9f:	48 63 d0             	movslq %eax,%rdx
    4ea2:	48 8b 45 c8          	mov    -0x38(%rbp),%rax
    4ea6:	48 01 d0             	add    %rdx,%rax
    4ea9:	c6 00 89             	movb   $0x89,(%rax)
    4eac:	8b 45 ec             	mov    -0x14(%rbp),%eax
    4eaf:	8d 50 01             	lea    0x1(%rax),%edx
    4eb2:	89 55 ec             	mov    %edx,-0x14(%rbp)
    4eb5:	48 63 d0             	movslq %eax,%rdx
    4eb8:	48 8b 45 c8          	mov    -0x38(%rbp),%rax
    4ebc:	48 01 d0             	add    %rdx,%rax
    4ebf:	c6 00 db             	movb   $0xdb,(%rax)
    4ec2:	e9 94 03 00 00       	jmp    525b <move_var+0x3d58>
    4ec7:	8b 45 ec             	mov    -0x14(%rbp),%eax
    4eca:	8d 50 01             	lea    0x1(%rax),%edx
    4ecd:	89 55 ec             	mov    %edx,-0x14(%rbp)
    4ed0:	48 63 d0             	movslq %eax,%rdx
    4ed3:	48 8b 45 c8          	mov    -0x38(%rbp),%rax
    4ed7:	48 01 d0             	add    %rdx,%rax
    4eda:	c6 00 49             	movb   $0x49,(%rax)
    4edd:	8b 45 ec             	mov    -0x14(%rbp),%eax
    4ee0:	8d 50 01             	lea    0x1(%rax),%edx
    4ee3:	89 55 ec             	mov    %edx,-0x14(%rbp)
    4ee6:	48 63 d0             	movslq %eax,%rdx
    4ee9:	48 8b 45 c8          	mov    -0x38(%rbp),%rax
    4eed:	48 01 d0             	add    %rdx,%rax
    4ef0:	c6 00 89             	movb   $0x89,(%rax)
    4ef3:	8b 45 ec             	mov    -0x14(%rbp),%eax
    4ef6:	8d 50 01             	lea    0x1(%rax),%edx
    4ef9:	89 55 ec             	mov    %edx,-0x14(%rbp)
    4efc:	48 63 d0             	movslq %eax,%rdx
    4eff:	48 8b 45 c8          	mov    -0x38(%rbp),%rax
    4f03:	48 01 d0             	add    %rdx,%rax
    4f06:	c6 00 dc             	movb   $0xdc,(%rax)
    4f09:	e9 4d 03 00 00       	jmp    525b <move_var+0x3d58>
    4f0e:	8b 45 ec             	mov    -0x14(%rbp),%eax
    4f11:	8d 50 01             	lea    0x1(%rax),%edx
    4f14:	89 55 ec             	mov    %edx,-0x14(%rbp)
    4f17:	48 63 d0             	movslq %eax,%rdx
    4f1a:	48 8b 45 c8          	mov    -0x38(%rbp),%rax
    4f1e:	48 01 d0             	add    %rdx,%rax
    4f21:	c6 00 49             	movb   $0x49,(%rax)
    4f24:	8b 45 ec             	mov    -0x14(%rbp),%eax
    4f27:	8d 50 01             	lea    0x1(%rax),%edx
    4f2a:	89 55 ec             	mov    %edx,-0x14(%rbp)
    4f2d:	48 63 d0             	movslq %eax,%rdx
    4f30:	48 8b 45 c8          	mov    -0x38(%rbp),%rax
    4f34:	48 01 d0             	add    %rdx,%rax
    4f37:	c6 00 89             	movb   $0x89,(%rax)
    4f3a:	8b 45 ec             	mov    -0x14(%rbp),%eax
    4f3d:	8d 50 01             	lea    0x1(%rax),%edx
    4f40:	89 55 ec             	mov    %edx,-0x14(%rbp)
    4f43:	48 63 d0             	movslq %eax,%rdx
    4f46:	48 8b 45 c8          	mov    -0x38(%rbp),%rax
    4f4a:	48 01 d0             	add    %rdx,%rax
    4f4d:	c6 00 dd             	movb   $0xdd,(%rax)
    4f50:	e9 06 03 00 00       	jmp    525b <move_var+0x3d58>
    4f55:	8b 45 ec             	mov    -0x14(%rbp),%eax
    4f58:	8d 50 01             	lea    0x1(%rax),%edx
    4f5b:	89 55 ec             	mov    %edx,-0x14(%rbp)
    4f5e:	48 63 d0             	movslq %eax,%rdx
    4f61:	48 8b 45 c8          	mov    -0x38(%rbp),%rax
    4f65:	48 01 d0             	add    %rdx,%rax
    4f68:	c6 00 49             	movb   $0x49,(%rax)
    4f6b:	8b 45 ec             	mov    -0x14(%rbp),%eax
    4f6e:	8d 50 01             	lea    0x1(%rax),%edx
    4f71:	89 55 ec             	mov    %edx,-0x14(%rbp)
    4f74:	48 63 d0             	movslq %eax,%rdx
    4f77:	48 8b 45 c8          	mov    -0x38(%rbp),%rax
    4f7b:	48 01 d0             	add    %rdx,%rax
    4f7e:	c6 00 89             	movb   $0x89,(%rax)
    4f81:	8b 45 ec             	mov    -0x14(%rbp),%eax
    4f84:	8d 50 01             	lea    0x1(%rax),%edx
    4f87:	89 55 ec             	mov    %edx,-0x14(%rbp)
    4f8a:	48 63 d0             	movslq %eax,%rdx
    4f8d:	48 8b 45 c8          	mov    -0x38(%rbp),%rax
    4f91:	48 01 d0             	add    %rdx,%rax
    4f94:	c6 00 de             	movb   $0xde,(%rax)
    4f97:	e9 bf 02 00 00       	jmp    525b <move_var+0x3d58>
    4f9c:	8b 45 ec             	mov    -0x14(%rbp),%eax
    4f9f:	8d 50 01             	lea    0x1(%rax),%edx
    4fa2:	89 55 ec             	mov    %edx,-0x14(%rbp)
    4fa5:	48 63 d0             	movslq %eax,%rdx
    4fa8:	48 8b 45 c8          	mov    -0x38(%rbp),%rax
    4fac:	48 01 d0             	add    %rdx,%rax
    4faf:	c6 00 49             	movb   $0x49,(%rax)
    4fb2:	8b 45 ec             	mov    -0x14(%rbp),%eax
    4fb5:	8d 50 01             	lea    0x1(%rax),%edx
    4fb8:	89 55 ec             	mov    %edx,-0x14(%rbp)
    4fbb:	48 63 d0             	movslq %eax,%rdx
    4fbe:	48 8b 45 c8          	mov    -0x38(%rbp),%rax
    4fc2:	48 01 d0             	add    %rdx,%rax
    4fc5:	c6 00 89             	movb   $0x89,(%rax)
    4fc8:	8b 45 ec             	mov    -0x14(%rbp),%eax
    4fcb:	8d 50 01             	lea    0x1(%rax),%edx
    4fce:	89 55 ec             	mov    %edx,-0x14(%rbp)
    4fd1:	48 63 d0             	movslq %eax,%rdx
    4fd4:	48 8b 45 c8          	mov    -0x38(%rbp),%rax
    4fd8:	48 01 d0             	add    %rdx,%rax
    4fdb:	c6 00 df             	movb   $0xdf,(%rax)
    4fde:	e9 78 02 00 00       	jmp    525b <move_var+0x3d58>
    4fe3:	8b 45 ec             	mov    -0x14(%rbp),%eax
    4fe6:	8d 50 01             	lea    0x1(%rax),%edx
    4fe9:	89 55 ec             	mov    %edx,-0x14(%rbp)
    4fec:	48 63 d0             	movslq %eax,%rdx
    4fef:	48 8b 45 c8          	mov    -0x38(%rbp),%rax
    4ff3:	48 01 d0             	add    %rdx,%rax
    4ff6:	c6 00 49             	movb   $0x49,(%rax)
    4ff9:	8b 45 ec             	mov    -0x14(%rbp),%eax
    4ffc:	8d 50 01             	lea    0x1(%rax),%edx
    4fff:	89 55 ec             	mov    %edx,-0x14(%rbp)
    5002:	48 63 d0             	movslq %eax,%rdx
    5005:	48 8b 45 c8          	mov    -0x38(%rbp),%rax
    5009:	48 01 d0             	add    %rdx,%rax
    500c:	c6 00 89             	movb   $0x89,(%rax)
    500f:	8b 45 ec             	mov    -0x14(%rbp),%eax
    5012:	8d 50 01             	lea    0x1(%rax),%edx
    5015:	89 55 ec             	mov    %edx,-0x14(%rbp)
    5018:	48 63 d0             	movslq %eax,%rdx
    501b:	48 8b 45 c8          	mov    -0x38(%rbp),%rax
    501f:	48 01 d0             	add    %rdx,%rax
    5022:	c6 00 d8             	movb   $0xd8,(%rax)
    5025:	e9 31 02 00 00       	jmp    525b <move_var+0x3d58>
    502a:	8b 45 ec             	mov    -0x14(%rbp),%eax
    502d:	8d 50 01             	lea    0x1(%rax),%edx
    5030:	89 55 ec             	mov    %edx,-0x14(%rbp)
    5033:	48 63 d0             	movslq %eax,%rdx
    5036:	48 8b 45 c8          	mov    -0x38(%rbp),%rax
    503a:	48 01 d0             	add    %rdx,%rax
    503d:	c6 00 49             	movb   $0x49,(%rax)
    5040:	8b 45 ec             	mov    -0x14(%rbp),%eax
    5043:	8d 50 01             	lea    0x1(%rax),%edx
    5046:	89 55 ec             	mov    %edx,-0x14(%rbp)
    5049:	48 63 d0             	movslq %eax,%rdx
    504c:	48 8b 45 c8          	mov    -0x38(%rbp),%rax
    5050:	48 01 d0             	add    %rdx,%rax
    5053:	c6 00 89             	movb   $0x89,(%rax)
    5056:	8b 45 ec             	mov    -0x14(%rbp),%eax
    5059:	8d 50 01             	lea    0x1(%rax),%edx
    505c:	89 55 ec             	mov    %edx,-0x14(%rbp)
    505f:	48 63 d0             	movslq %eax,%rdx
    5062:	48 8b 45 c8          	mov    -0x38(%rbp),%rax
    5066:	48 01 d0             	add    %rdx,%rax
    5069:	c6 00 d9             	movb   $0xd9,(%rax)
    506c:	e9 ea 01 00 00       	jmp    525b <move_var+0x3d58>
    5071:	8b 45 ec             	mov    -0x14(%rbp),%eax
    5074:	8d 50 01             	lea    0x1(%rax),%edx
    5077:	89 55 ec             	mov    %edx,-0x14(%rbp)
    507a:	48 63 d0             	movslq %eax,%rdx
    507d:	48 8b 45 c8          	mov    -0x38(%rbp),%rax
    5081:	48 01 d0             	add    %rdx,%rax
    5084:	c6 00 48             	movb   $0x48,(%rax)
    5087:	8b 45 ec             	mov    -0x14(%rbp),%eax
    508a:	8d 50 01             	lea    0x1(%rax),%edx
    508d:	89 55 ec             	mov    %edx,-0x14(%rbp)
    5090:	48 63 d0             	movslq %eax,%rdx
    5093:	48 8b 45 c8          	mov    -0x38(%rbp),%rax
    5097:	48 01 d0             	add    %rdx,%rax
    509a:	c6 00 89             	movb   $0x89,(%rax)
    509d:	8b 45 ec             	mov    -0x14(%rbp),%eax
    50a0:	8d 50 01             	lea    0x1(%rax),%edx
    50a3:	89 55 ec             	mov    %edx,-0x14(%rbp)
    50a6:	48 63 d0             	movslq %eax,%rdx
    50a9:	48 8b 45 c8          	mov    -0x38(%rbp),%rax
    50ad:	48 01 d0             	add    %rdx,%rax
    50b0:	c6 00 d8             	movb   $0xd8,(%rax)
    50b3:	e9 a3 01 00 00       	jmp    525b <move_var+0x3d58>
    50b8:	8b 45 ec             	mov    -0x14(%rbp),%eax
    50bb:	8d 50 01             	lea    0x1(%rax),%edx
    50be:	89 55 ec             	mov    %edx,-0x14(%rbp)
    50c1:	48 63 d0             	movslq %eax,%rdx
    50c4:	48 8b 45 c8          	mov    -0x38(%rbp),%rax
    50c8:	48 01 d0             	add    %rdx,%rax
    50cb:	c6 00 48             	movb   $0x48,(%rax)
    50ce:	8b 45 ec             	mov    -0x14(%rbp),%eax
    50d1:	8d 50 01             	lea    0x1(%rax),%edx
    50d4:	89 55 ec             	mov    %edx,-0x14(%rbp)
    50d7:	48 63 d0             	movslq %eax,%rdx
    50da:	48 8b 45 c8          	mov    -0x38(%rbp),%rax
    50de:	48 01 d0             	add    %rdx,%rax
    50e1:	c6 00 89             	movb   $0x89,(%rax)
    50e4:	8b 45 ec             	mov    -0x14(%rbp),%eax
    50e7:	8d 50 01             	lea    0x1(%rax),%edx
    50ea:	89 55 ec             	mov    %edx,-0x14(%rbp)
    50ed:	48 63 d0             	movslq %eax,%rdx
    50f0:	48 8b 45 c8          	mov    -0x38(%rbp),%rax
    50f4:	48 01 d0             	add    %rdx,%rax
    50f7:	c6 00 dd             	movb   $0xdd,(%rax)
    50fa:	e9 5c 01 00 00       	jmp    525b <move_var+0x3d58>
    50ff:	8b 45 ec             	mov    -0x14(%rbp),%eax
    5102:	8d 50 01             	lea    0x1(%rax),%edx
    5105:	89 55 ec             	mov    %edx,-0x14(%rbp)
    5108:	48 63 d0             	movslq %eax,%rdx
    510b:	48 8b 45 c8          	mov    -0x38(%rbp),%rax
    510f:	48 01 d0             	add    %rdx,%rax
    5112:	c6 00 48             	movb   $0x48,(%rax)
    5115:	8b 45 ec             	mov    -0x14(%rbp),%eax
    5118:	8d 50 01             	lea    0x1(%rax),%edx
    511b:	89 55 ec             	mov    %edx,-0x14(%rbp)
    511e:	48 63 d0             	movslq %eax,%rdx
    5121:	48 8b 45 c8          	mov    -0x38(%rbp),%rax
    5125:	48 01 d0             	add    %rdx,%rax
    5128:	c6 00 89             	movb   $0x89,(%rax)
    512b:	8b 45 ec             	mov    -0x14(%rbp),%eax
    512e:	8d 50 01             	lea    0x1(%rax),%edx
    5131:	89 55 ec             	mov    %edx,-0x14(%rbp)
    5134:	48 63 d0             	movslq %eax,%rdx
    5137:	48 8b 45 c8          	mov    -0x38(%rbp),%rax
    513b:	48 01 d0             	add    %rdx,%rax
    513e:	c6 00 d9             	movb   $0xd9,(%rax)
    5141:	e9 15 01 00 00       	jmp    525b <move_var+0x3d58>
    5146:	8b 45 ec             	mov    -0x14(%rbp),%eax
    5149:	8d 50 01             	lea    0x1(%rax),%edx
    514c:	89 55 ec             	mov    %edx,-0x14(%rbp)
    514f:	48 63 d0             	movslq %eax,%rdx
    5152:	48 8b 45 c8          	mov    -0x38(%rbp),%rax
    5156:	48 01 d0             	add    %rdx,%rax
    5159:	c6 00 48             	movb   $0x48,(%rax)
    515c:	8b 45 ec             	mov    -0x14(%rbp),%eax
    515f:	8d 50 01             	lea    0x1(%rax),%edx
    5162:	89 55 ec             	mov    %edx,-0x14(%rbp)
    5165:	48 63 d0             	movslq %eax,%rdx
    5168:	48 8b 45 c8          	mov    -0x38(%rbp),%rax
    516c:	48 01 d0             	add    %rdx,%rax
    516f:	c6 00 89             	movb   $0x89,(%rax)
    5172:	8b 45 ec             	mov    -0x14(%rbp),%eax
    5175:	8d 50 01             	lea    0x1(%rax),%edx
    5178:	89 55 ec             	mov    %edx,-0x14(%rbp)
    517b:	48 63 d0             	movslq %eax,%rdx
    517e:	48 8b 45 c8          	mov    -0x38(%rbp),%rax
    5182:	48 01 d0             	add    %rdx,%rax
    5185:	c6 00 df             	movb   $0xdf,(%rax)
    5188:	e9 ce 00 00 00       	jmp    525b <move_var+0x3d58>
    518d:	8b 45 ec             	mov    -0x14(%rbp),%eax
    5190:	8d 50 01             	lea    0x1(%rax),%edx
    5193:	89 55 ec             	mov    %edx,-0x14(%rbp)
    5196:	48 63 d0             	movslq %eax,%rdx
    5199:	48 8b 45 c8          	mov    -0x38(%rbp),%rax
    519d:	48 01 d0             	add    %rdx,%rax
    51a0:	c6 00 48             	movb   $0x48,(%rax)
    51a3:	8b 45 ec             	mov    -0x14(%rbp),%eax
    51a6:	8d 50 01             	lea    0x1(%rax),%edx
    51a9:	89 55 ec             	mov    %edx,-0x14(%rbp)
    51ac:	48 63 d0             	movslq %eax,%rdx
    51af:	48 8b 45 c8          	mov    -0x38(%rbp),%rax
    51b3:	48 01 d0             	add    %rdx,%rax
    51b6:	c6 00 89             	movb   $0x89,(%rax)
    51b9:	8b 45 ec             	mov    -0x14(%rbp),%eax
    51bc:	8d 50 01             	lea    0x1(%rax),%edx
    51bf:	89 55 ec             	mov    %edx,-0x14(%rbp)
    51c2:	48 63 d0             	movslq %eax,%rdx
    51c5:	48 8b 45 c8          	mov    -0x38(%rbp),%rax
    51c9:	48 01 d0             	add    %rdx,%rax
    51cc:	c6 00 da             	movb   $0xda,(%rax)
    51cf:	e9 87 00 00 00       	jmp    525b <move_var+0x3d58>
    51d4:	8b 45 ec             	mov    -0x14(%rbp),%eax
    51d7:	8d 50 01             	lea    0x1(%rax),%edx
    51da:	89 55 ec             	mov    %edx,-0x14(%rbp)
    51dd:	48 63 d0             	movslq %eax,%rdx
    51e0:	48 8b 45 c8          	mov    -0x38(%rbp),%rax
    51e4:	48 01 d0             	add    %rdx,%rax
    51e7:	c6 00 48             	movb   $0x48,(%rax)
    51ea:	8b 45 ec             	mov    -0x14(%rbp),%eax
    51ed:	8d 50 01             	lea    0x1(%rax),%edx
    51f0:	89 55 ec             	mov    %edx,-0x14(%rbp)
    51f3:	48 63 d0             	movslq %eax,%rdx
    51f6:	48 8b 45 c8          	mov    -0x38(%rbp),%rax
    51fa:	48 01 d0             	add    %rdx,%rax
    51fd:	c6 00 89             	movb   $0x89,(%rax)
    5200:	8b 45 ec             	mov    -0x14(%rbp),%eax
    5203:	8d 50 01             	lea    0x1(%rax),%edx
    5206:	89 55 ec             	mov    %edx,-0x14(%rbp)
    5209:	48 63 d0             	movslq %eax,%rdx
    520c:	48 8b 45 c8          	mov    -0x38(%rbp),%rax
    5210:	48 01 d0             	add    %rdx,%rax
    5213:	c6 00 de             	movb   $0xde,(%rax)
    5216:	eb 43                	jmp    525b <move_var+0x3d58>
    5218:	8b 45 ec             	mov    -0x14(%rbp),%eax
    521b:	8d 50 01             	lea    0x1(%rax),%edx
    521e:	89 55 ec             	mov    %edx,-0x14(%rbp)
    5221:	48 63 d0             	movslq %eax,%rdx
    5224:	48 8b 45 c8          	mov    -0x38(%rbp),%rax
    5228:	48 01 d0             	add    %rdx,%rax
    522b:	c6 00 48             	movb   $0x48,(%rax)
    522e:	8b 45 ec             	mov    -0x14(%rbp),%eax
    5231:	8d 50 01             	lea    0x1(%rax),%edx
    5234:	89 55 ec             	mov    %edx,-0x14(%rbp)
    5237:	48 63 d0             	movslq %eax,%rdx
    523a:	48 8b 45 c8          	mov    -0x38(%rbp),%rax
    523e:	48 01 d0             	add    %rdx,%rax
    5241:	c6 00 89             	movb   $0x89,(%rax)
    5244:	8b 45 ec             	mov    -0x14(%rbp),%eax
    5247:	8d 50 01             	lea    0x1(%rax),%edx
    524a:	89 55 ec             	mov    %edx,-0x14(%rbp)
    524d:	48 63 d0             	movslq %eax,%rdx
    5250:	48 8b 45 c8          	mov    -0x38(%rbp),%rax
    5254:	48 01 d0             	add    %rdx,%rax
    5257:	c6 00 dc             	movb   $0xdc,(%rax)
    525a:	90                   	nop
    525b:	e9 d8 1a 00 00       	jmp    6d38 <move_var+0x5835>
    5260:	48 81 7d f8 1a a7 88 	cmpq   $0xb88a71a,-0x8(%rbp)
    5267:	0b 
    5268:	0f 84 03 05 00 00    	je     5771 <move_var+0x426e>
    526e:	48 81 7d f8 1a a7 88 	cmpq   $0xb88a71a,-0x8(%rbp)
    5275:	0b 
    5276:	0f 87 bf 1a 00 00    	ja     6d3b <move_var+0x5838>
    527c:	48 81 7d f8 13 a7 88 	cmpq   $0xb88a713,-0x8(%rbp)
    5283:	0b 
    5284:	0f 84 a3 04 00 00    	je     572d <move_var+0x422a>
    528a:	48 81 7d f8 13 a7 88 	cmpq   $0xb88a713,-0x8(%rbp)
    5291:	0b 
    5292:	0f 87 a3 1a 00 00    	ja     6d3b <move_var+0x5838>
    5298:	48 81 7d f8 33 a5 88 	cmpq   $0xb88a533,-0x8(%rbp)
    529f:	0b 
    52a0:	0f 84 40 04 00 00    	je     56e6 <move_var+0x41e3>
    52a6:	48 81 7d f8 33 a5 88 	cmpq   $0xb88a533,-0x8(%rbp)
    52ad:	0b 
    52ae:	0f 87 87 1a 00 00    	ja     6d3b <move_var+0x5838>
    52b4:	48 81 7d f8 24 a5 88 	cmpq   $0xb88a524,-0x8(%rbp)
    52bb:	0b 
    52bc:	0f 84 dd 03 00 00    	je     569f <move_var+0x419c>
    52c2:	48 81 7d f8 24 a5 88 	cmpq   $0xb88a524,-0x8(%rbp)
    52c9:	0b 
    52ca:	0f 87 6b 1a 00 00    	ja     6d3b <move_var+0x5838>
    52d0:	48 81 7d f8 f1 a4 88 	cmpq   $0xb88a4f1,-0x8(%rbp)
    52d7:	0b 
    52d8:	0f 84 7a 03 00 00    	je     5658 <move_var+0x4155>
    52de:	48 81 7d f8 f1 a4 88 	cmpq   $0xb88a4f1,-0x8(%rbp)
    52e5:	0b 
    52e6:	0f 87 4f 1a 00 00    	ja     6d3b <move_var+0x5838>
    52ec:	48 81 7d f8 e9 a4 88 	cmpq   $0xb88a4e9,-0x8(%rbp)
    52f3:	0b 
    52f4:	0f 84 17 03 00 00    	je     5611 <move_var+0x410e>
    52fa:	48 81 7d f8 e9 a4 88 	cmpq   $0xb88a4e9,-0x8(%rbp)
    5301:	0b 
    5302:	0f 87 33 1a 00 00    	ja     6d3b <move_var+0x5838>
    5308:	48 81 7d f8 d0 a4 88 	cmpq   $0xb88a4d0,-0x8(%rbp)
    530f:	0b 
    5310:	0f 84 b4 02 00 00    	je     55ca <move_var+0x40c7>
    5316:	48 81 7d f8 d0 a4 88 	cmpq   $0xb88a4d0,-0x8(%rbp)
    531d:	0b 
    531e:	0f 87 17 1a 00 00    	ja     6d3b <move_var+0x5838>
    5324:	48 81 7d f8 5d 9e 88 	cmpq   $0xb889e5d,-0x8(%rbp)
    532b:	0b 
    532c:	0f 87 09 1a 00 00    	ja     6d3b <move_var+0x5838>
    5332:	48 81 7d f8 58 9e 88 	cmpq   $0xb889e58,-0x8(%rbp)
    5339:	0b 
    533a:	73 21                	jae    535d <move_var+0x3e5a>
    533c:	48 81 7d f8 2f 79 59 	cmpq   $0x59792f,-0x8(%rbp)
    5343:	00 
    5344:	0f 84 f2 01 00 00    	je     553c <move_var+0x4039>
    534a:	48 81 7d f8 30 79 59 	cmpq   $0x597930,-0x8(%rbp)
    5351:	00 
    5352:	0f 84 2b 02 00 00    	je     5583 <move_var+0x4080>
    5358:	e9 de 19 00 00       	jmp    6d3b <move_var+0x5838>
    535d:	48 8b 45 f8          	mov    -0x8(%rbp),%rax
    5361:	48 2d 58 9e 88 0b    	sub    $0xb889e58,%rax
    5367:	48 83 f8 05          	cmp    $0x5,%rax
    536b:	0f 87 ca 19 00 00    	ja     6d3b <move_var+0x5838>
    5371:	48 8d 14 85 00 00 00 	lea    0x0(,%rax,4),%rdx
    5378:	00 
    5379:	48 8d 05 e0 1d 00 00 	lea    0x1de0(%rip),%rax        # 7160 <_IO_stdin_used+0x160>
    5380:	8b 04 02             	mov    (%rdx,%rax,1),%eax
    5383:	48 98                	cltq
    5385:	48 8d 15 d4 1d 00 00 	lea    0x1dd4(%rip),%rdx        # 7160 <_IO_stdin_used+0x160>
    538c:	48 01 d0             	add    %rdx,%rax
    538f:	3e ff e0             	notrack jmp *%rax
    5392:	8b 45 ec             	mov    -0x14(%rbp),%eax
    5395:	8d 50 01             	lea    0x1(%rax),%edx
    5398:	89 55 ec             	mov    %edx,-0x14(%rbp)
    539b:	48 63 d0             	movslq %eax,%rdx
    539e:	48 8b 45 c8          	mov    -0x38(%rbp),%rax
    53a2:	48 01 d0             	add    %rdx,%rax
    53a5:	c6 00 49             	movb   $0x49,(%rax)
    53a8:	8b 45 ec             	mov    -0x14(%rbp),%eax
    53ab:	8d 50 01             	lea    0x1(%rax),%edx
    53ae:	89 55 ec             	mov    %edx,-0x14(%rbp)
    53b1:	48 63 d0             	movslq %eax,%rdx
    53b4:	48 8b 45 c8          	mov    -0x38(%rbp),%rax
    53b8:	48 01 d0             	add    %rdx,%rax
    53bb:	c6 00 89             	movb   $0x89,(%rax)
    53be:	8b 45 ec             	mov    -0x14(%rbp),%eax
    53c1:	8d 50 01             	lea    0x1(%rax),%edx
    53c4:	89 55 ec             	mov    %edx,-0x14(%rbp)
    53c7:	48 63 d0             	movslq %eax,%rdx
    53ca:	48 8b 45 c8          	mov    -0x38(%rbp),%rax
    53ce:	48 01 d0             	add    %rdx,%rax
    53d1:	c6 00 ca             	movb   $0xca,(%rax)
    53d4:	e9 db 03 00 00       	jmp    57b4 <move_var+0x42b1>
    53d9:	8b 45 ec             	mov    -0x14(%rbp),%eax
    53dc:	8d 50 01             	lea    0x1(%rax),%edx
    53df:	89 55 ec             	mov    %edx,-0x14(%rbp)
    53e2:	48 63 d0             	movslq %eax,%rdx
    53e5:	48 8b 45 c8          	mov    -0x38(%rbp),%rax
    53e9:	48 01 d0             	add    %rdx,%rax
    53ec:	c6 00 49             	movb   $0x49,(%rax)
    53ef:	8b 45 ec             	mov    -0x14(%rbp),%eax
    53f2:	8d 50 01             	lea    0x1(%rax),%edx
    53f5:	89 55 ec             	mov    %edx,-0x14(%rbp)
    53f8:	48 63 d0             	movslq %eax,%rdx
    53fb:	48 8b 45 c8          	mov    -0x38(%rbp),%rax
    53ff:	48 01 d0             	add    %rdx,%rax
    5402:	c6 00 89             	movb   $0x89,(%rax)
    5405:	8b 45 ec             	mov    -0x14(%rbp),%eax
    5408:	8d 50 01             	lea    0x1(%rax),%edx
    540b:	89 55 ec             	mov    %edx,-0x14(%rbp)
    540e:	48 63 d0             	movslq %eax,%rdx
    5411:	48 8b 45 c8          	mov    -0x38(%rbp),%rax
    5415:	48 01 d0             	add    %rdx,%rax
    5418:	c6 00 cb             	movb   $0xcb,(%rax)
    541b:	e9 94 03 00 00       	jmp    57b4 <move_var+0x42b1>
    5420:	8b 45 ec             	mov    -0x14(%rbp),%eax
    5423:	8d 50 01             	lea    0x1(%rax),%edx
    5426:	89 55 ec             	mov    %edx,-0x14(%rbp)
    5429:	48 63 d0             	movslq %eax,%rdx
    542c:	48 8b 45 c8          	mov    -0x38(%rbp),%rax
    5430:	48 01 d0             	add    %rdx,%rax
    5433:	c6 00 49             	movb   $0x49,(%rax)
    5436:	8b 45 ec             	mov    -0x14(%rbp),%eax
    5439:	8d 50 01             	lea    0x1(%rax),%edx
    543c:	89 55 ec             	mov    %edx,-0x14(%rbp)
    543f:	48 63 d0             	movslq %eax,%rdx
    5442:	48 8b 45 c8          	mov    -0x38(%rbp),%rax
    5446:	48 01 d0             	add    %rdx,%rax
    5449:	c6 00 89             	movb   $0x89,(%rax)
    544c:	8b 45 ec             	mov    -0x14(%rbp),%eax
    544f:	8d 50 01             	lea    0x1(%rax),%edx
    5452:	89 55 ec             	mov    %edx,-0x14(%rbp)
    5455:	48 63 d0             	movslq %eax,%rdx
    5458:	48 8b 45 c8          	mov    -0x38(%rbp),%rax
    545c:	48 01 d0             	add    %rdx,%rax
    545f:	c6 00 cc             	movb   $0xcc,(%rax)
    5462:	e9 4d 03 00 00       	jmp    57b4 <move_var+0x42b1>
    5467:	8b 45 ec             	mov    -0x14(%rbp),%eax
    546a:	8d 50 01             	lea    0x1(%rax),%edx
    546d:	89 55 ec             	mov    %edx,-0x14(%rbp)
    5470:	48 63 d0             	movslq %eax,%rdx
    5473:	48 8b 45 c8          	mov    -0x38(%rbp),%rax
    5477:	48 01 d0             	add    %rdx,%rax
    547a:	c6 00 49             	movb   $0x49,(%rax)
    547d:	8b 45 ec             	mov    -0x14(%rbp),%eax
    5480:	8d 50 01             	lea    0x1(%rax),%edx
    5483:	89 55 ec             	mov    %edx,-0x14(%rbp)
    5486:	48 63 d0             	movslq %eax,%rdx
    5489:	48 8b 45 c8          	mov    -0x38(%rbp),%rax
    548d:	48 01 d0             	add    %rdx,%rax
    5490:	c6 00 89             	movb   $0x89,(%rax)
    5493:	8b 45 ec             	mov    -0x14(%rbp),%eax
    5496:	8d 50 01             	lea    0x1(%rax),%edx
    5499:	89 55 ec             	mov    %edx,-0x14(%rbp)
    549c:	48 63 d0             	movslq %eax,%rdx
    549f:	48 8b 45 c8          	mov    -0x38(%rbp),%rax
    54a3:	48 01 d0             	add    %rdx,%rax
    54a6:	c6 00 cd             	movb   $0xcd,(%rax)
    54a9:	e9 06 03 00 00       	jmp    57b4 <move_var+0x42b1>
    54ae:	8b 45 ec             	mov    -0x14(%rbp),%eax
    54b1:	8d 50 01             	lea    0x1(%rax),%edx
    54b4:	89 55 ec             	mov    %edx,-0x14(%rbp)
    54b7:	48 63 d0             	movslq %eax,%rdx
    54ba:	48 8b 45 c8          	mov    -0x38(%rbp),%rax
    54be:	48 01 d0             	add    %rdx,%rax
    54c1:	c6 00 49             	movb   $0x49,(%rax)
    54c4:	8b 45 ec             	mov    -0x14(%rbp),%eax
    54c7:	8d 50 01             	lea    0x1(%rax),%edx
    54ca:	89 55 ec             	mov    %edx,-0x14(%rbp)
    54cd:	48 63 d0             	movslq %eax,%rdx
    54d0:	48 8b 45 c8          	mov    -0x38(%rbp),%rax
    54d4:	48 01 d0             	add    %rdx,%rax
    54d7:	c6 00 89             	movb   $0x89,(%rax)
    54da:	8b 45 ec             	mov    -0x14(%rbp),%eax
    54dd:	8d 50 01             	lea    0x1(%rax),%edx
    54e0:	89 55 ec             	mov    %edx,-0x14(%rbp)
    54e3:	48 63 d0             	movslq %eax,%rdx
    54e6:	48 8b 45 c8          	mov    -0x38(%rbp),%rax
    54ea:	48 01 d0             	add    %rdx,%rax
    54ed:	c6 00 ce             	movb   $0xce,(%rax)
    54f0:	e9 bf 02 00 00       	jmp    57b4 <move_var+0x42b1>
    54f5:	8b 45 ec             	mov    -0x14(%rbp),%eax
    54f8:	8d 50 01             	lea    0x1(%rax),%edx
    54fb:	89 55 ec             	mov    %edx,-0x14(%rbp)
    54fe:	48 63 d0             	movslq %eax,%rdx
    5501:	48 8b 45 c8          	mov    -0x38(%rbp),%rax
    5505:	48 01 d0             	add    %rdx,%rax
    5508:	c6 00 49             	movb   $0x49,(%rax)
    550b:	8b 45 ec             	mov    -0x14(%rbp),%eax
    550e:	8d 50 01             	lea    0x1(%rax),%edx
    5511:	89 55 ec             	mov    %edx,-0x14(%rbp)
    5514:	48 63 d0             	movslq %eax,%rdx
    5517:	48 8b 45 c8          	mov    -0x38(%rbp),%rax
    551b:	48 01 d0             	add    %rdx,%rax
    551e:	c6 00 89             	movb   $0x89,(%rax)
    5521:	8b 45 ec             	mov    -0x14(%rbp),%eax
    5524:	8d 50 01             	lea    0x1(%rax),%edx
    5527:	89 55 ec             	mov    %edx,-0x14(%rbp)
    552a:	48 63 d0             	movslq %eax,%rdx
    552d:	48 8b 45 c8          	mov    -0x38(%rbp),%rax
    5531:	48 01 d0             	add    %rdx,%rax
    5534:	c6 00 cf             	movb   $0xcf,(%rax)
    5537:	e9 78 02 00 00       	jmp    57b4 <move_var+0x42b1>
    553c:	8b 45 ec             	mov    -0x14(%rbp),%eax
    553f:	8d 50 01             	lea    0x1(%rax),%edx
    5542:	89 55 ec             	mov    %edx,-0x14(%rbp)
    5545:	48 63 d0             	movslq %eax,%rdx
    5548:	48 8b 45 c8          	mov    -0x38(%rbp),%rax
    554c:	48 01 d0             	add    %rdx,%rax
    554f:	c6 00 49             	movb   $0x49,(%rax)
    5552:	8b 45 ec             	mov    -0x14(%rbp),%eax
    5555:	8d 50 01             	lea    0x1(%rax),%edx
    5558:	89 55 ec             	mov    %edx,-0x14(%rbp)
    555b:	48 63 d0             	movslq %eax,%rdx
    555e:	48 8b 45 c8          	mov    -0x38(%rbp),%rax
    5562:	48 01 d0             	add    %rdx,%rax
    5565:	c6 00 89             	movb   $0x89,(%rax)
    5568:	8b 45 ec             	mov    -0x14(%rbp),%eax
    556b:	8d 50 01             	lea    0x1(%rax),%edx
    556e:	89 55 ec             	mov    %edx,-0x14(%rbp)
    5571:	48 63 d0             	movslq %eax,%rdx
    5574:	48 8b 45 c8          	mov    -0x38(%rbp),%rax
    5578:	48 01 d0             	add    %rdx,%rax
    557b:	c6 00 c8             	movb   $0xc8,(%rax)
    557e:	e9 31 02 00 00       	jmp    57b4 <move_var+0x42b1>
    5583:	8b 45 ec             	mov    -0x14(%rbp),%eax
    5586:	8d 50 01             	lea    0x1(%rax),%edx
    5589:	89 55 ec             	mov    %edx,-0x14(%rbp)
    558c:	48 63 d0             	movslq %eax,%rdx
    558f:	48 8b 45 c8          	mov    -0x38(%rbp),%rax
    5593:	48 01 d0             	add    %rdx,%rax
    5596:	c6 00 49             	movb   $0x49,(%rax)
    5599:	8b 45 ec             	mov    -0x14(%rbp),%eax
    559c:	8d 50 01             	lea    0x1(%rax),%edx
    559f:	89 55 ec             	mov    %edx,-0x14(%rbp)
    55a2:	48 63 d0             	movslq %eax,%rdx
    55a5:	48 8b 45 c8          	mov    -0x38(%rbp),%rax
    55a9:	48 01 d0             	add    %rdx,%rax
    55ac:	c6 00 89             	movb   $0x89,(%rax)
    55af:	8b 45 ec             	mov    -0x14(%rbp),%eax
    55b2:	8d 50 01             	lea    0x1(%rax),%edx
    55b5:	89 55 ec             	mov    %edx,-0x14(%rbp)
    55b8:	48 63 d0             	movslq %eax,%rdx
    55bb:	48 8b 45 c8          	mov    -0x38(%rbp),%rax
    55bf:	48 01 d0             	add    %rdx,%rax
    55c2:	c6 00 c9             	movb   $0xc9,(%rax)
    55c5:	e9 ea 01 00 00       	jmp    57b4 <move_var+0x42b1>
    55ca:	8b 45 ec             	mov    -0x14(%rbp),%eax
    55cd:	8d 50 01             	lea    0x1(%rax),%edx
    55d0:	89 55 ec             	mov    %edx,-0x14(%rbp)
    55d3:	48 63 d0             	movslq %eax,%rdx
    55d6:	48 8b 45 c8          	mov    -0x38(%rbp),%rax
    55da:	48 01 d0             	add    %rdx,%rax
    55dd:	c6 00 48             	movb   $0x48,(%rax)
    55e0:	8b 45 ec             	mov    -0x14(%rbp),%eax
    55e3:	8d 50 01             	lea    0x1(%rax),%edx
    55e6:	89 55 ec             	mov    %edx,-0x14(%rbp)
    55e9:	48 63 d0             	movslq %eax,%rdx
    55ec:	48 8b 45 c8          	mov    -0x38(%rbp),%rax
    55f0:	48 01 d0             	add    %rdx,%rax
    55f3:	c6 00 89             	movb   $0x89,(%rax)
    55f6:	8b 45 ec             	mov    -0x14(%rbp),%eax
    55f9:	8d 50 01             	lea    0x1(%rax),%edx
    55fc:	89 55 ec             	mov    %edx,-0x14(%rbp)
    55ff:	48 63 d0             	movslq %eax,%rdx
    5602:	48 8b 45 c8          	mov    -0x38(%rbp),%rax
    5606:	48 01 d0             	add    %rdx,%rax
    5609:	c6 00 c8             	movb   $0xc8,(%rax)
    560c:	e9 a3 01 00 00       	jmp    57b4 <move_var+0x42b1>
    5611:	8b 45 ec             	mov    -0x14(%rbp),%eax
    5614:	8d 50 01             	lea    0x1(%rax),%edx
    5617:	89 55 ec             	mov    %edx,-0x14(%rbp)
    561a:	48 63 d0             	movslq %eax,%rdx
    561d:	48 8b 45 c8          	mov    -0x38(%rbp),%rax
    5621:	48 01 d0             	add    %rdx,%rax
    5624:	c6 00 48             	movb   $0x48,(%rax)
    5627:	8b 45 ec             	mov    -0x14(%rbp),%eax
    562a:	8d 50 01             	lea    0x1(%rax),%edx
    562d:	89 55 ec             	mov    %edx,-0x14(%rbp)
    5630:	48 63 d0             	movslq %eax,%rdx
    5633:	48 8b 45 c8          	mov    -0x38(%rbp),%rax
    5637:	48 01 d0             	add    %rdx,%rax
    563a:	c6 00 89             	movb   $0x89,(%rax)
    563d:	8b 45 ec             	mov    -0x14(%rbp),%eax
    5640:	8d 50 01             	lea    0x1(%rax),%edx
    5643:	89 55 ec             	mov    %edx,-0x14(%rbp)
    5646:	48 63 d0             	movslq %eax,%rdx
    5649:	48 8b 45 c8          	mov    -0x38(%rbp),%rax
    564d:	48 01 d0             	add    %rdx,%rax
    5650:	c6 00 cd             	movb   $0xcd,(%rax)
    5653:	e9 5c 01 00 00       	jmp    57b4 <move_var+0x42b1>
    5658:	8b 45 ec             	mov    -0x14(%rbp),%eax
    565b:	8d 50 01             	lea    0x1(%rax),%edx
    565e:	89 55 ec             	mov    %edx,-0x14(%rbp)
    5661:	48 63 d0             	movslq %eax,%rdx
    5664:	48 8b 45 c8          	mov    -0x38(%rbp),%rax
    5668:	48 01 d0             	add    %rdx,%rax
    566b:	c6 00 48             	movb   $0x48,(%rax)
    566e:	8b 45 ec             	mov    -0x14(%rbp),%eax
    5671:	8d 50 01             	lea    0x1(%rax),%edx
    5674:	89 55 ec             	mov    %edx,-0x14(%rbp)
    5677:	48 63 d0             	movslq %eax,%rdx
    567a:	48 8b 45 c8          	mov    -0x38(%rbp),%rax
    567e:	48 01 d0             	add    %rdx,%rax
    5681:	c6 00 89             	movb   $0x89,(%rax)
    5684:	8b 45 ec             	mov    -0x14(%rbp),%eax
    5687:	8d 50 01             	lea    0x1(%rax),%edx
    568a:	89 55 ec             	mov    %edx,-0x14(%rbp)
    568d:	48 63 d0             	movslq %eax,%rdx
    5690:	48 8b 45 c8          	mov    -0x38(%rbp),%rax
    5694:	48 01 d0             	add    %rdx,%rax
    5697:	c6 00 cb             	movb   $0xcb,(%rax)
    569a:	e9 15 01 00 00       	jmp    57b4 <move_var+0x42b1>
    569f:	8b 45 ec             	mov    -0x14(%rbp),%eax
    56a2:	8d 50 01             	lea    0x1(%rax),%edx
    56a5:	89 55 ec             	mov    %edx,-0x14(%rbp)
    56a8:	48 63 d0             	movslq %eax,%rdx
    56ab:	48 8b 45 c8          	mov    -0x38(%rbp),%rax
    56af:	48 01 d0             	add    %rdx,%rax
    56b2:	c6 00 48             	movb   $0x48,(%rax)
    56b5:	8b 45 ec             	mov    -0x14(%rbp),%eax
    56b8:	8d 50 01             	lea    0x1(%rax),%edx
    56bb:	89 55 ec             	mov    %edx,-0x14(%rbp)
    56be:	48 63 d0             	movslq %eax,%rdx
    56c1:	48 8b 45 c8          	mov    -0x38(%rbp),%rax
    56c5:	48 01 d0             	add    %rdx,%rax
    56c8:	c6 00 89             	movb   $0x89,(%rax)
    56cb:	8b 45 ec             	mov    -0x14(%rbp),%eax
    56ce:	8d 50 01             	lea    0x1(%rax),%edx
    56d1:	89 55 ec             	mov    %edx,-0x14(%rbp)
    56d4:	48 63 d0             	movslq %eax,%rdx
    56d7:	48 8b 45 c8          	mov    -0x38(%rbp),%rax
    56db:	48 01 d0             	add    %rdx,%rax
    56de:	c6 00 cf             	movb   $0xcf,(%rax)
    56e1:	e9 ce 00 00 00       	jmp    57b4 <move_var+0x42b1>
    56e6:	8b 45 ec             	mov    -0x14(%rbp),%eax
    56e9:	8d 50 01             	lea    0x1(%rax),%edx
    56ec:	89 55 ec             	mov    %edx,-0x14(%rbp)
    56ef:	48 63 d0             	movslq %eax,%rdx
    56f2:	48 8b 45 c8          	mov    -0x38(%rbp),%rax
    56f6:	48 01 d0             	add    %rdx,%rax
    56f9:	c6 00 48             	movb   $0x48,(%rax)
    56fc:	8b 45 ec             	mov    -0x14(%rbp),%eax
    56ff:	8d 50 01             	lea    0x1(%rax),%edx
    5702:	89 55 ec             	mov    %edx,-0x14(%rbp)
    5705:	48 63 d0             	movslq %eax,%rdx
    5708:	48 8b 45 c8          	mov    -0x38(%rbp),%rax
    570c:	48 01 d0             	add    %rdx,%rax
    570f:	c6 00 89             	movb   $0x89,(%rax)
    5712:	8b 45 ec             	mov    -0x14(%rbp),%eax
    5715:	8d 50 01             	lea    0x1(%rax),%edx
    5718:	89 55 ec             	mov    %edx,-0x14(%rbp)
    571b:	48 63 d0             	movslq %eax,%rdx
    571e:	48 8b 45 c8          	mov    -0x38(%rbp),%rax
    5722:	48 01 d0             	add    %rdx,%rax
    5725:	c6 00 ca             	movb   $0xca,(%rax)
    5728:	e9 87 00 00 00       	jmp    57b4 <move_var+0x42b1>
    572d:	8b 45 ec             	mov    -0x14(%rbp),%eax
    5730:	8d 50 01             	lea    0x1(%rax),%edx
    5733:	89 55 ec             	mov    %edx,-0x14(%rbp)
    5736:	48 63 d0             	movslq %eax,%rdx
    5739:	48 8b 45 c8          	mov    -0x38(%rbp),%rax
    573d:	48 01 d0             	add    %rdx,%rax
    5740:	c6 00 48             	movb   $0x48,(%rax)
    5743:	8b 45 ec             	mov    -0x14(%rbp),%eax
    5746:	8d 50 01             	lea    0x1(%rax),%edx
    5749:	89 55 ec             	mov    %edx,-0x14(%rbp)
    574c:	48 63 d0             	movslq %eax,%rdx
    574f:	48 8b 45 c8          	mov    -0x38(%rbp),%rax
    5753:	48 01 d0             	add    %rdx,%rax
    5756:	c6 00 89             	movb   $0x89,(%rax)
    5759:	8b 45 ec             	mov    -0x14(%rbp),%eax
    575c:	8d 50 01             	lea    0x1(%rax),%edx
    575f:	89 55 ec             	mov    %edx,-0x14(%rbp)
    5762:	48 63 d0             	movslq %eax,%rdx
    5765:	48 8b 45 c8          	mov    -0x38(%rbp),%rax
    5769:	48 01 d0             	add    %rdx,%rax
    576c:	c6 00 ce             	movb   $0xce,(%rax)
    576f:	eb 43                	jmp    57b4 <move_var+0x42b1>
    5771:	8b 45 ec             	mov    -0x14(%rbp),%eax
    5774:	8d 50 01             	lea    0x1(%rax),%edx
    5777:	89 55 ec             	mov    %edx,-0x14(%rbp)
    577a:	48 63 d0             	movslq %eax,%rdx
    577d:	48 8b 45 c8          	mov    -0x38(%rbp),%rax
    5781:	48 01 d0             	add    %rdx,%rax
    5784:	c6 00 48             	movb   $0x48,(%rax)
    5787:	8b 45 ec             	mov    -0x14(%rbp),%eax
    578a:	8d 50 01             	lea    0x1(%rax),%edx
    578d:	89 55 ec             	mov    %edx,-0x14(%rbp)
    5790:	48 63 d0             	movslq %eax,%rdx
    5793:	48 8b 45 c8          	mov    -0x38(%rbp),%rax
    5797:	48 01 d0             	add    %rdx,%rax
    579a:	c6 00 89             	movb   $0x89,(%rax)
    579d:	8b 45 ec             	mov    -0x14(%rbp),%eax
    57a0:	8d 50 01             	lea    0x1(%rax),%edx
    57a3:	89 55 ec             	mov    %edx,-0x14(%rbp)
    57a6:	48 63 d0             	movslq %eax,%rdx
    57a9:	48 8b 45 c8          	mov    -0x38(%rbp),%rax
    57ad:	48 01 d0             	add    %rdx,%rax
    57b0:	c6 00 cc             	movb   $0xcc,(%rax)
    57b3:	90                   	nop
    57b4:	e9 82 15 00 00       	jmp    6d3b <move_var+0x5838>
    57b9:	48 81 7d f8 1a a7 88 	cmpq   $0xb88a71a,-0x8(%rbp)
    57c0:	0b 
    57c1:	0f 84 03 05 00 00    	je     5cca <move_var+0x47c7>
    57c7:	48 81 7d f8 1a a7 88 	cmpq   $0xb88a71a,-0x8(%rbp)
    57ce:	0b 
    57cf:	0f 87 69 15 00 00    	ja     6d3e <move_var+0x583b>
    57d5:	48 81 7d f8 13 a7 88 	cmpq   $0xb88a713,-0x8(%rbp)
    57dc:	0b 
    57dd:	0f 84 a3 04 00 00    	je     5c86 <move_var+0x4783>
    57e3:	48 81 7d f8 13 a7 88 	cmpq   $0xb88a713,-0x8(%rbp)
    57ea:	0b 
    57eb:	0f 87 4d 15 00 00    	ja     6d3e <move_var+0x583b>
    57f1:	48 81 7d f8 33 a5 88 	cmpq   $0xb88a533,-0x8(%rbp)
    57f8:	0b 
    57f9:	0f 84 40 04 00 00    	je     5c3f <move_var+0x473c>
    57ff:	48 81 7d f8 33 a5 88 	cmpq   $0xb88a533,-0x8(%rbp)
    5806:	0b 
    5807:	0f 87 31 15 00 00    	ja     6d3e <move_var+0x583b>
    580d:	48 81 7d f8 12 a5 88 	cmpq   $0xb88a512,-0x8(%rbp)
    5814:	0b 
    5815:	0f 84 dd 03 00 00    	je     5bf8 <move_var+0x46f5>
    581b:	48 81 7d f8 12 a5 88 	cmpq   $0xb88a512,-0x8(%rbp)
    5822:	0b 
    5823:	0f 87 15 15 00 00    	ja     6d3e <move_var+0x583b>
    5829:	48 81 7d f8 f1 a4 88 	cmpq   $0xb88a4f1,-0x8(%rbp)
    5830:	0b 
    5831:	0f 84 7a 03 00 00    	je     5bb1 <move_var+0x46ae>
    5837:	48 81 7d f8 f1 a4 88 	cmpq   $0xb88a4f1,-0x8(%rbp)
    583e:	0b 
    583f:	0f 87 f9 14 00 00    	ja     6d3e <move_var+0x583b>
    5845:	48 81 7d f8 e9 a4 88 	cmpq   $0xb88a4e9,-0x8(%rbp)
    584c:	0b 
    584d:	0f 84 17 03 00 00    	je     5b6a <move_var+0x4667>
    5853:	48 81 7d f8 e9 a4 88 	cmpq   $0xb88a4e9,-0x8(%rbp)
    585a:	0b 
    585b:	0f 87 dd 14 00 00    	ja     6d3e <move_var+0x583b>
    5861:	48 81 7d f8 d0 a4 88 	cmpq   $0xb88a4d0,-0x8(%rbp)
    5868:	0b 
    5869:	0f 84 b4 02 00 00    	je     5b23 <move_var+0x4620>
    586f:	48 81 7d f8 d0 a4 88 	cmpq   $0xb88a4d0,-0x8(%rbp)
    5876:	0b 
    5877:	0f 87 c1 14 00 00    	ja     6d3e <move_var+0x583b>
    587d:	48 81 7d f8 5d 9e 88 	cmpq   $0xb889e5d,-0x8(%rbp)
    5884:	0b 
    5885:	0f 87 b3 14 00 00    	ja     6d3e <move_var+0x583b>
    588b:	48 81 7d f8 58 9e 88 	cmpq   $0xb889e58,-0x8(%rbp)
    5892:	0b 
    5893:	73 21                	jae    58b6 <move_var+0x43b3>
    5895:	48 81 7d f8 2f 79 59 	cmpq   $0x59792f,-0x8(%rbp)
    589c:	00 
    589d:	0f 84 f2 01 00 00    	je     5a95 <move_var+0x4592>
    58a3:	48 81 7d f8 30 79 59 	cmpq   $0x597930,-0x8(%rbp)
    58aa:	00 
    58ab:	0f 84 2b 02 00 00    	je     5adc <move_var+0x45d9>
    58b1:	e9 88 14 00 00       	jmp    6d3e <move_var+0x583b>
    58b6:	48 8b 45 f8          	mov    -0x8(%rbp),%rax
    58ba:	48 2d 58 9e 88 0b    	sub    $0xb889e58,%rax
    58c0:	48 83 f8 05          	cmp    $0x5,%rax
    58c4:	0f 87 74 14 00 00    	ja     6d3e <move_var+0x583b>
    58ca:	48 8d 14 85 00 00 00 	lea    0x0(,%rax,4),%rdx
    58d1:	00 
    58d2:	48 8d 05 9f 18 00 00 	lea    0x189f(%rip),%rax        # 7178 <_IO_stdin_used+0x178>
    58d9:	8b 04 02             	mov    (%rdx,%rax,1),%eax
    58dc:	48 98                	cltq
    58de:	48 8d 15 93 18 00 00 	lea    0x1893(%rip),%rdx        # 7178 <_IO_stdin_used+0x178>
    58e5:	48 01 d0             	add    %rdx,%rax
    58e8:	3e ff e0             	notrack jmp *%rax
    58eb:	8b 45 ec             	mov    -0x14(%rbp),%eax
    58ee:	8d 50 01             	lea    0x1(%rax),%edx
    58f1:	89 55 ec             	mov    %edx,-0x14(%rbp)
    58f4:	48 63 d0             	movslq %eax,%rdx
    58f7:	48 8b 45 c8          	mov    -0x38(%rbp),%rax
    58fb:	48 01 d0             	add    %rdx,%rax
    58fe:	c6 00 49             	movb   $0x49,(%rax)
    5901:	8b 45 ec             	mov    -0x14(%rbp),%eax
    5904:	8d 50 01             	lea    0x1(%rax),%edx
    5907:	89 55 ec             	mov    %edx,-0x14(%rbp)
    590a:	48 63 d0             	movslq %eax,%rdx
    590d:	48 8b 45 c8          	mov    -0x38(%rbp),%rax
    5911:	48 01 d0             	add    %rdx,%rax
    5914:	c6 00 89             	movb   $0x89,(%rax)
    5917:	8b 45 ec             	mov    -0x14(%rbp),%eax
    591a:	8d 50 01             	lea    0x1(%rax),%edx
    591d:	89 55 ec             	mov    %edx,-0x14(%rbp)
    5920:	48 63 d0             	movslq %eax,%rdx
    5923:	48 8b 45 c8          	mov    -0x38(%rbp),%rax
    5927:	48 01 d0             	add    %rdx,%rax
    592a:	c6 00 fa             	movb   $0xfa,(%rax)
    592d:	e9 db 03 00 00       	jmp    5d0d <move_var+0x480a>
    5932:	8b 45 ec             	mov    -0x14(%rbp),%eax
    5935:	8d 50 01             	lea    0x1(%rax),%edx
    5938:	89 55 ec             	mov    %edx,-0x14(%rbp)
    593b:	48 63 d0             	movslq %eax,%rdx
    593e:	48 8b 45 c8          	mov    -0x38(%rbp),%rax
    5942:	48 01 d0             	add    %rdx,%rax
    5945:	c6 00 49             	movb   $0x49,(%rax)
    5948:	8b 45 ec             	mov    -0x14(%rbp),%eax
    594b:	8d 50 01             	lea    0x1(%rax),%edx
    594e:	89 55 ec             	mov    %edx,-0x14(%rbp)
    5951:	48 63 d0             	movslq %eax,%rdx
    5954:	48 8b 45 c8          	mov    -0x38(%rbp),%rax
    5958:	48 01 d0             	add    %rdx,%rax
    595b:	c6 00 89             	movb   $0x89,(%rax)
    595e:	8b 45 ec             	mov    -0x14(%rbp),%eax
    5961:	8d 50 01             	lea    0x1(%rax),%edx
    5964:	89 55 ec             	mov    %edx,-0x14(%rbp)
    5967:	48 63 d0             	movslq %eax,%rdx
    596a:	48 8b 45 c8          	mov    -0x38(%rbp),%rax
    596e:	48 01 d0             	add    %rdx,%rax
    5971:	c6 00 fb             	movb   $0xfb,(%rax)
    5974:	e9 94 03 00 00       	jmp    5d0d <move_var+0x480a>
    5979:	8b 45 ec             	mov    -0x14(%rbp),%eax
    597c:	8d 50 01             	lea    0x1(%rax),%edx
    597f:	89 55 ec             	mov    %edx,-0x14(%rbp)
    5982:	48 63 d0             	movslq %eax,%rdx
    5985:	48 8b 45 c8          	mov    -0x38(%rbp),%rax
    5989:	48 01 d0             	add    %rdx,%rax
    598c:	c6 00 49             	movb   $0x49,(%rax)
    598f:	8b 45 ec             	mov    -0x14(%rbp),%eax
    5992:	8d 50 01             	lea    0x1(%rax),%edx
    5995:	89 55 ec             	mov    %edx,-0x14(%rbp)
    5998:	48 63 d0             	movslq %eax,%rdx
    599b:	48 8b 45 c8          	mov    -0x38(%rbp),%rax
    599f:	48 01 d0             	add    %rdx,%rax
    59a2:	c6 00 89             	movb   $0x89,(%rax)
    59a5:	8b 45 ec             	mov    -0x14(%rbp),%eax
    59a8:	8d 50 01             	lea    0x1(%rax),%edx
    59ab:	89 55 ec             	mov    %edx,-0x14(%rbp)
    59ae:	48 63 d0             	movslq %eax,%rdx
    59b1:	48 8b 45 c8          	mov    -0x38(%rbp),%rax
    59b5:	48 01 d0             	add    %rdx,%rax
    59b8:	c6 00 fc             	movb   $0xfc,(%rax)
    59bb:	e9 4d 03 00 00       	jmp    5d0d <move_var+0x480a>
    59c0:	8b 45 ec             	mov    -0x14(%rbp),%eax
    59c3:	8d 50 01             	lea    0x1(%rax),%edx
    59c6:	89 55 ec             	mov    %edx,-0x14(%rbp)
    59c9:	48 63 d0             	movslq %eax,%rdx
    59cc:	48 8b 45 c8          	mov    -0x38(%rbp),%rax
    59d0:	48 01 d0             	add    %rdx,%rax
    59d3:	c6 00 49             	movb   $0x49,(%rax)
    59d6:	8b 45 ec             	mov    -0x14(%rbp),%eax
    59d9:	8d 50 01             	lea    0x1(%rax),%edx
    59dc:	89 55 ec             	mov    %edx,-0x14(%rbp)
    59df:	48 63 d0             	movslq %eax,%rdx
    59e2:	48 8b 45 c8          	mov    -0x38(%rbp),%rax
    59e6:	48 01 d0             	add    %rdx,%rax
    59e9:	c6 00 89             	movb   $0x89,(%rax)
    59ec:	8b 45 ec             	mov    -0x14(%rbp),%eax
    59ef:	8d 50 01             	lea    0x1(%rax),%edx
    59f2:	89 55 ec             	mov    %edx,-0x14(%rbp)
    59f5:	48 63 d0             	movslq %eax,%rdx
    59f8:	48 8b 45 c8          	mov    -0x38(%rbp),%rax
    59fc:	48 01 d0             	add    %rdx,%rax
    59ff:	c6 00 fd             	movb   $0xfd,(%rax)
    5a02:	e9 06 03 00 00       	jmp    5d0d <move_var+0x480a>
    5a07:	8b 45 ec             	mov    -0x14(%rbp),%eax
    5a0a:	8d 50 01             	lea    0x1(%rax),%edx
    5a0d:	89 55 ec             	mov    %edx,-0x14(%rbp)
    5a10:	48 63 d0             	movslq %eax,%rdx
    5a13:	48 8b 45 c8          	mov    -0x38(%rbp),%rax
    5a17:	48 01 d0             	add    %rdx,%rax
    5a1a:	c6 00 49             	movb   $0x49,(%rax)
    5a1d:	8b 45 ec             	mov    -0x14(%rbp),%eax
    5a20:	8d 50 01             	lea    0x1(%rax),%edx
    5a23:	89 55 ec             	mov    %edx,-0x14(%rbp)
    5a26:	48 63 d0             	movslq %eax,%rdx
    5a29:	48 8b 45 c8          	mov    -0x38(%rbp),%rax
    5a2d:	48 01 d0             	add    %rdx,%rax
    5a30:	c6 00 89             	movb   $0x89,(%rax)
    5a33:	8b 45 ec             	mov    -0x14(%rbp),%eax
    5a36:	8d 50 01             	lea    0x1(%rax),%edx
    5a39:	89 55 ec             	mov    %edx,-0x14(%rbp)
    5a3c:	48 63 d0             	movslq %eax,%rdx
    5a3f:	48 8b 45 c8          	mov    -0x38(%rbp),%rax
    5a43:	48 01 d0             	add    %rdx,%rax
    5a46:	c6 00 fe             	movb   $0xfe,(%rax)
    5a49:	e9 bf 02 00 00       	jmp    5d0d <move_var+0x480a>
    5a4e:	8b 45 ec             	mov    -0x14(%rbp),%eax
    5a51:	8d 50 01             	lea    0x1(%rax),%edx
    5a54:	89 55 ec             	mov    %edx,-0x14(%rbp)
    5a57:	48 63 d0             	movslq %eax,%rdx
    5a5a:	48 8b 45 c8          	mov    -0x38(%rbp),%rax
    5a5e:	48 01 d0             	add    %rdx,%rax
    5a61:	c6 00 49             	movb   $0x49,(%rax)
    5a64:	8b 45 ec             	mov    -0x14(%rbp),%eax
    5a67:	8d 50 01             	lea    0x1(%rax),%edx
    5a6a:	89 55 ec             	mov    %edx,-0x14(%rbp)
    5a6d:	48 63 d0             	movslq %eax,%rdx
    5a70:	48 8b 45 c8          	mov    -0x38(%rbp),%rax
    5a74:	48 01 d0             	add    %rdx,%rax
    5a77:	c6 00 89             	movb   $0x89,(%rax)
    5a7a:	8b 45 ec             	mov    -0x14(%rbp),%eax
    5a7d:	8d 50 01             	lea    0x1(%rax),%edx
    5a80:	89 55 ec             	mov    %edx,-0x14(%rbp)
    5a83:	48 63 d0             	movslq %eax,%rdx
    5a86:	48 8b 45 c8          	mov    -0x38(%rbp),%rax
    5a8a:	48 01 d0             	add    %rdx,%rax
    5a8d:	c6 00 ff             	movb   $0xff,(%rax)
    5a90:	e9 78 02 00 00       	jmp    5d0d <move_var+0x480a>
    5a95:	8b 45 ec             	mov    -0x14(%rbp),%eax
    5a98:	8d 50 01             	lea    0x1(%rax),%edx
    5a9b:	89 55 ec             	mov    %edx,-0x14(%rbp)
    5a9e:	48 63 d0             	movslq %eax,%rdx
    5aa1:	48 8b 45 c8          	mov    -0x38(%rbp),%rax
    5aa5:	48 01 d0             	add    %rdx,%rax
    5aa8:	c6 00 49             	movb   $0x49,(%rax)
    5aab:	8b 45 ec             	mov    -0x14(%rbp),%eax
    5aae:	8d 50 01             	lea    0x1(%rax),%edx
    5ab1:	89 55 ec             	mov    %edx,-0x14(%rbp)
    5ab4:	48 63 d0             	movslq %eax,%rdx
    5ab7:	48 8b 45 c8          	mov    -0x38(%rbp),%rax
    5abb:	48 01 d0             	add    %rdx,%rax
    5abe:	c6 00 89             	movb   $0x89,(%rax)
    5ac1:	8b 45 ec             	mov    -0x14(%rbp),%eax
    5ac4:	8d 50 01             	lea    0x1(%rax),%edx
    5ac7:	89 55 ec             	mov    %edx,-0x14(%rbp)
    5aca:	48 63 d0             	movslq %eax,%rdx
    5acd:	48 8b 45 c8          	mov    -0x38(%rbp),%rax
    5ad1:	48 01 d0             	add    %rdx,%rax
    5ad4:	c6 00 f8             	movb   $0xf8,(%rax)
    5ad7:	e9 31 02 00 00       	jmp    5d0d <move_var+0x480a>
    5adc:	8b 45 ec             	mov    -0x14(%rbp),%eax
    5adf:	8d 50 01             	lea    0x1(%rax),%edx
    5ae2:	89 55 ec             	mov    %edx,-0x14(%rbp)
    5ae5:	48 63 d0             	movslq %eax,%rdx
    5ae8:	48 8b 45 c8          	mov    -0x38(%rbp),%rax
    5aec:	48 01 d0             	add    %rdx,%rax
    5aef:	c6 00 49             	movb   $0x49,(%rax)
    5af2:	8b 45 ec             	mov    -0x14(%rbp),%eax
    5af5:	8d 50 01             	lea    0x1(%rax),%edx
    5af8:	89 55 ec             	mov    %edx,-0x14(%rbp)
    5afb:	48 63 d0             	movslq %eax,%rdx
    5afe:	48 8b 45 c8          	mov    -0x38(%rbp),%rax
    5b02:	48 01 d0             	add    %rdx,%rax
    5b05:	c6 00 89             	movb   $0x89,(%rax)
    5b08:	8b 45 ec             	mov    -0x14(%rbp),%eax
    5b0b:	8d 50 01             	lea    0x1(%rax),%edx
    5b0e:	89 55 ec             	mov    %edx,-0x14(%rbp)
    5b11:	48 63 d0             	movslq %eax,%rdx
    5b14:	48 8b 45 c8          	mov    -0x38(%rbp),%rax
    5b18:	48 01 d0             	add    %rdx,%rax
    5b1b:	c6 00 f9             	movb   $0xf9,(%rax)
    5b1e:	e9 ea 01 00 00       	jmp    5d0d <move_var+0x480a>
    5b23:	8b 45 ec             	mov    -0x14(%rbp),%eax
    5b26:	8d 50 01             	lea    0x1(%rax),%edx
    5b29:	89 55 ec             	mov    %edx,-0x14(%rbp)
    5b2c:	48 63 d0             	movslq %eax,%rdx
    5b2f:	48 8b 45 c8          	mov    -0x38(%rbp),%rax
    5b33:	48 01 d0             	add    %rdx,%rax
    5b36:	c6 00 48             	movb   $0x48,(%rax)
    5b39:	8b 45 ec             	mov    -0x14(%rbp),%eax
    5b3c:	8d 50 01             	lea    0x1(%rax),%edx
    5b3f:	89 55 ec             	mov    %edx,-0x14(%rbp)
    5b42:	48 63 d0             	movslq %eax,%rdx
    5b45:	48 8b 45 c8          	mov    -0x38(%rbp),%rax
    5b49:	48 01 d0             	add    %rdx,%rax
    5b4c:	c6 00 89             	movb   $0x89,(%rax)
    5b4f:	8b 45 ec             	mov    -0x14(%rbp),%eax
    5b52:	8d 50 01             	lea    0x1(%rax),%edx
    5b55:	89 55 ec             	mov    %edx,-0x14(%rbp)
    5b58:	48 63 d0             	movslq %eax,%rdx
    5b5b:	48 8b 45 c8          	mov    -0x38(%rbp),%rax
    5b5f:	48 01 d0             	add    %rdx,%rax
    5b62:	c6 00 f8             	movb   $0xf8,(%rax)
    5b65:	e9 a3 01 00 00       	jmp    5d0d <move_var+0x480a>
    5b6a:	8b 45 ec             	mov    -0x14(%rbp),%eax
    5b6d:	8d 50 01             	lea    0x1(%rax),%edx
    5b70:	89 55 ec             	mov    %edx,-0x14(%rbp)
    5b73:	48 63 d0             	movslq %eax,%rdx
    5b76:	48 8b 45 c8          	mov    -0x38(%rbp),%rax
    5b7a:	48 01 d0             	add    %rdx,%rax
    5b7d:	c6 00 48             	movb   $0x48,(%rax)
    5b80:	8b 45 ec             	mov    -0x14(%rbp),%eax
    5b83:	8d 50 01             	lea    0x1(%rax),%edx
    5b86:	89 55 ec             	mov    %edx,-0x14(%rbp)
    5b89:	48 63 d0             	movslq %eax,%rdx
    5b8c:	48 8b 45 c8          	mov    -0x38(%rbp),%rax
    5b90:	48 01 d0             	add    %rdx,%rax
    5b93:	c6 00 89             	movb   $0x89,(%rax)
    5b96:	8b 45 ec             	mov    -0x14(%rbp),%eax
    5b99:	8d 50 01             	lea    0x1(%rax),%edx
    5b9c:	89 55 ec             	mov    %edx,-0x14(%rbp)
    5b9f:	48 63 d0             	movslq %eax,%rdx
    5ba2:	48 8b 45 c8          	mov    -0x38(%rbp),%rax
    5ba6:	48 01 d0             	add    %rdx,%rax
    5ba9:	c6 00 fd             	movb   $0xfd,(%rax)
    5bac:	e9 5c 01 00 00       	jmp    5d0d <move_var+0x480a>
    5bb1:	8b 45 ec             	mov    -0x14(%rbp),%eax
    5bb4:	8d 50 01             	lea    0x1(%rax),%edx
    5bb7:	89 55 ec             	mov    %edx,-0x14(%rbp)
    5bba:	48 63 d0             	movslq %eax,%rdx
    5bbd:	48 8b 45 c8          	mov    -0x38(%rbp),%rax
    5bc1:	48 01 d0             	add    %rdx,%rax
    5bc4:	c6 00 48             	movb   $0x48,(%rax)
    5bc7:	8b 45 ec             	mov    -0x14(%rbp),%eax
    5bca:	8d 50 01             	lea    0x1(%rax),%edx
    5bcd:	89 55 ec             	mov    %edx,-0x14(%rbp)
    5bd0:	48 63 d0             	movslq %eax,%rdx
    5bd3:	48 8b 45 c8          	mov    -0x38(%rbp),%rax
    5bd7:	48 01 d0             	add    %rdx,%rax
    5bda:	c6 00 89             	movb   $0x89,(%rax)
    5bdd:	8b 45 ec             	mov    -0x14(%rbp),%eax
    5be0:	8d 50 01             	lea    0x1(%rax),%edx
    5be3:	89 55 ec             	mov    %edx,-0x14(%rbp)
    5be6:	48 63 d0             	movslq %eax,%rdx
    5be9:	48 8b 45 c8          	mov    -0x38(%rbp),%rax
    5bed:	48 01 d0             	add    %rdx,%rax
    5bf0:	c6 00 fb             	movb   $0xfb,(%rax)
    5bf3:	e9 15 01 00 00       	jmp    5d0d <move_var+0x480a>
    5bf8:	8b 45 ec             	mov    -0x14(%rbp),%eax
    5bfb:	8d 50 01             	lea    0x1(%rax),%edx
    5bfe:	89 55 ec             	mov    %edx,-0x14(%rbp)
    5c01:	48 63 d0             	movslq %eax,%rdx
    5c04:	48 8b 45 c8          	mov    -0x38(%rbp),%rax
    5c08:	48 01 d0             	add    %rdx,%rax
    5c0b:	c6 00 48             	movb   $0x48,(%rax)
    5c0e:	8b 45 ec             	mov    -0x14(%rbp),%eax
    5c11:	8d 50 01             	lea    0x1(%rax),%edx
    5c14:	89 55 ec             	mov    %edx,-0x14(%rbp)
    5c17:	48 63 d0             	movslq %eax,%rdx
    5c1a:	48 8b 45 c8          	mov    -0x38(%rbp),%rax
    5c1e:	48 01 d0             	add    %rdx,%rax
    5c21:	c6 00 89             	movb   $0x89,(%rax)
    5c24:	8b 45 ec             	mov    -0x14(%rbp),%eax
    5c27:	8d 50 01             	lea    0x1(%rax),%edx
    5c2a:	89 55 ec             	mov    %edx,-0x14(%rbp)
    5c2d:	48 63 d0             	movslq %eax,%rdx
    5c30:	48 8b 45 c8          	mov    -0x38(%rbp),%rax
    5c34:	48 01 d0             	add    %rdx,%rax
    5c37:	c6 00 f9             	movb   $0xf9,(%rax)
    5c3a:	e9 ce 00 00 00       	jmp    5d0d <move_var+0x480a>
    5c3f:	8b 45 ec             	mov    -0x14(%rbp),%eax
    5c42:	8d 50 01             	lea    0x1(%rax),%edx
    5c45:	89 55 ec             	mov    %edx,-0x14(%rbp)
    5c48:	48 63 d0             	movslq %eax,%rdx
    5c4b:	48 8b 45 c8          	mov    -0x38(%rbp),%rax
    5c4f:	48 01 d0             	add    %rdx,%rax
    5c52:	c6 00 48             	movb   $0x48,(%rax)
    5c55:	8b 45 ec             	mov    -0x14(%rbp),%eax
    5c58:	8d 50 01             	lea    0x1(%rax),%edx
    5c5b:	89 55 ec             	mov    %edx,-0x14(%rbp)
    5c5e:	48 63 d0             	movslq %eax,%rdx
    5c61:	48 8b 45 c8          	mov    -0x38(%rbp),%rax
    5c65:	48 01 d0             	add    %rdx,%rax
    5c68:	c6 00 89             	movb   $0x89,(%rax)
    5c6b:	8b 45 ec             	mov    -0x14(%rbp),%eax
    5c6e:	8d 50 01             	lea    0x1(%rax),%edx
    5c71:	89 55 ec             	mov    %edx,-0x14(%rbp)
    5c74:	48 63 d0             	movslq %eax,%rdx
    5c77:	48 8b 45 c8          	mov    -0x38(%rbp),%rax
    5c7b:	48 01 d0             	add    %rdx,%rax
    5c7e:	c6 00 fa             	movb   $0xfa,(%rax)
    5c81:	e9 87 00 00 00       	jmp    5d0d <move_var+0x480a>
    5c86:	8b 45 ec             	mov    -0x14(%rbp),%eax
    5c89:	8d 50 01             	lea    0x1(%rax),%edx
    5c8c:	89 55 ec             	mov    %edx,-0x14(%rbp)
    5c8f:	48 63 d0             	movslq %eax,%rdx
    5c92:	48 8b 45 c8          	mov    -0x38(%rbp),%rax
    5c96:	48 01 d0             	add    %rdx,%rax
    5c99:	c6 00 48             	movb   $0x48,(%rax)
    5c9c:	8b 45 ec             	mov    -0x14(%rbp),%eax
    5c9f:	8d 50 01             	lea    0x1(%rax),%edx
    5ca2:	89 55 ec             	mov    %edx,-0x14(%rbp)
    5ca5:	48 63 d0             	movslq %eax,%rdx
    5ca8:	48 8b 45 c8          	mov    -0x38(%rbp),%rax
    5cac:	48 01 d0             	add    %rdx,%rax
    5caf:	c6 00 89             	movb   $0x89,(%rax)
    5cb2:	8b 45 ec             	mov    -0x14(%rbp),%eax
    5cb5:	8d 50 01             	lea    0x1(%rax),%edx
    5cb8:	89 55 ec             	mov    %edx,-0x14(%rbp)
    5cbb:	48 63 d0             	movslq %eax,%rdx
    5cbe:	48 8b 45 c8          	mov    -0x38(%rbp),%rax
    5cc2:	48 01 d0             	add    %rdx,%rax
    5cc5:	c6 00 fe             	movb   $0xfe,(%rax)
    5cc8:	eb 43                	jmp    5d0d <move_var+0x480a>
    5cca:	8b 45 ec             	mov    -0x14(%rbp),%eax
    5ccd:	8d 50 01             	lea    0x1(%rax),%edx
    5cd0:	89 55 ec             	mov    %edx,-0x14(%rbp)
    5cd3:	48 63 d0             	movslq %eax,%rdx
    5cd6:	48 8b 45 c8          	mov    -0x38(%rbp),%rax
    5cda:	48 01 d0             	add    %rdx,%rax
    5cdd:	c6 00 48             	movb   $0x48,(%rax)
    5ce0:	8b 45 ec             	mov    -0x14(%rbp),%eax
    5ce3:	8d 50 01             	lea    0x1(%rax),%edx
    5ce6:	89 55 ec             	mov    %edx,-0x14(%rbp)
    5ce9:	48 63 d0             	movslq %eax,%rdx
    5cec:	48 8b 45 c8          	mov    -0x38(%rbp),%rax
    5cf0:	48 01 d0             	add    %rdx,%rax
    5cf3:	c6 00 89             	movb   $0x89,(%rax)
    5cf6:	8b 45 ec             	mov    -0x14(%rbp),%eax
    5cf9:	8d 50 01             	lea    0x1(%rax),%edx
    5cfc:	89 55 ec             	mov    %edx,-0x14(%rbp)
    5cff:	48 63 d0             	movslq %eax,%rdx
    5d02:	48 8b 45 c8          	mov    -0x38(%rbp),%rax
    5d06:	48 01 d0             	add    %rdx,%rax
    5d09:	c6 00 fc             	movb   $0xfc,(%rax)
    5d0c:	90                   	nop
    5d0d:	e9 2c 10 00 00       	jmp    6d3e <move_var+0x583b>
    5d12:	48 81 7d f8 1a a7 88 	cmpq   $0xb88a71a,-0x8(%rbp)
    5d19:	0b 
    5d1a:	0f 84 03 05 00 00    	je     6223 <move_var+0x4d20>
    5d20:	48 81 7d f8 1a a7 88 	cmpq   $0xb88a71a,-0x8(%rbp)
    5d27:	0b 
    5d28:	0f 87 13 10 00 00    	ja     6d41 <move_var+0x583e>
    5d2e:	48 81 7d f8 13 a7 88 	cmpq   $0xb88a713,-0x8(%rbp)
    5d35:	0b 
    5d36:	0f 84 a3 04 00 00    	je     61df <move_var+0x4cdc>
    5d3c:	48 81 7d f8 13 a7 88 	cmpq   $0xb88a713,-0x8(%rbp)
    5d43:	0b 
    5d44:	0f 87 f7 0f 00 00    	ja     6d41 <move_var+0x583e>
    5d4a:	48 81 7d f8 24 a5 88 	cmpq   $0xb88a524,-0x8(%rbp)
    5d51:	0b 
    5d52:	0f 84 40 04 00 00    	je     6198 <move_var+0x4c95>
    5d58:	48 81 7d f8 24 a5 88 	cmpq   $0xb88a524,-0x8(%rbp)
    5d5f:	0b 
    5d60:	0f 87 db 0f 00 00    	ja     6d41 <move_var+0x583e>
    5d66:	48 81 7d f8 12 a5 88 	cmpq   $0xb88a512,-0x8(%rbp)
    5d6d:	0b 
    5d6e:	0f 84 dd 03 00 00    	je     6151 <move_var+0x4c4e>
    5d74:	48 81 7d f8 12 a5 88 	cmpq   $0xb88a512,-0x8(%rbp)
    5d7b:	0b 
    5d7c:	0f 87 bf 0f 00 00    	ja     6d41 <move_var+0x583e>
    5d82:	48 81 7d f8 f1 a4 88 	cmpq   $0xb88a4f1,-0x8(%rbp)
    5d89:	0b 
    5d8a:	0f 84 7a 03 00 00    	je     610a <move_var+0x4c07>
    5d90:	48 81 7d f8 f1 a4 88 	cmpq   $0xb88a4f1,-0x8(%rbp)
    5d97:	0b 
    5d98:	0f 87 a3 0f 00 00    	ja     6d41 <move_var+0x583e>
    5d9e:	48 81 7d f8 e9 a4 88 	cmpq   $0xb88a4e9,-0x8(%rbp)
    5da5:	0b 
    5da6:	0f 84 17 03 00 00    	je     60c3 <move_var+0x4bc0>
    5dac:	48 81 7d f8 e9 a4 88 	cmpq   $0xb88a4e9,-0x8(%rbp)
    5db3:	0b 
    5db4:	0f 87 87 0f 00 00    	ja     6d41 <move_var+0x583e>
    5dba:	48 81 7d f8 d0 a4 88 	cmpq   $0xb88a4d0,-0x8(%rbp)
    5dc1:	0b 
    5dc2:	0f 84 b4 02 00 00    	je     607c <move_var+0x4b79>
    5dc8:	48 81 7d f8 d0 a4 88 	cmpq   $0xb88a4d0,-0x8(%rbp)
    5dcf:	0b 
    5dd0:	0f 87 6b 0f 00 00    	ja     6d41 <move_var+0x583e>
    5dd6:	48 81 7d f8 5d 9e 88 	cmpq   $0xb889e5d,-0x8(%rbp)
    5ddd:	0b 
    5dde:	0f 87 5d 0f 00 00    	ja     6d41 <move_var+0x583e>
    5de4:	48 81 7d f8 58 9e 88 	cmpq   $0xb889e58,-0x8(%rbp)
    5deb:	0b 
    5dec:	73 21                	jae    5e0f <move_var+0x490c>
    5dee:	48 81 7d f8 2f 79 59 	cmpq   $0x59792f,-0x8(%rbp)
    5df5:	00 
    5df6:	0f 84 f2 01 00 00    	je     5fee <move_var+0x4aeb>
    5dfc:	48 81 7d f8 30 79 59 	cmpq   $0x597930,-0x8(%rbp)
    5e03:	00 
    5e04:	0f 84 2b 02 00 00    	je     6035 <move_var+0x4b32>
    5e0a:	e9 32 0f 00 00       	jmp    6d41 <move_var+0x583e>
    5e0f:	48 8b 45 f8          	mov    -0x8(%rbp),%rax
    5e13:	48 2d 58 9e 88 0b    	sub    $0xb889e58,%rax
    5e19:	48 83 f8 05          	cmp    $0x5,%rax
    5e1d:	0f 87 1e 0f 00 00    	ja     6d41 <move_var+0x583e>
    5e23:	48 8d 14 85 00 00 00 	lea    0x0(,%rax,4),%rdx
    5e2a:	00 
    5e2b:	48 8d 05 5e 13 00 00 	lea    0x135e(%rip),%rax        # 7190 <_IO_stdin_used+0x190>
    5e32:	8b 04 02             	mov    (%rdx,%rax,1),%eax
    5e35:	48 98                	cltq
    5e37:	48 8d 15 52 13 00 00 	lea    0x1352(%rip),%rdx        # 7190 <_IO_stdin_used+0x190>
    5e3e:	48 01 d0             	add    %rdx,%rax
    5e41:	3e ff e0             	notrack jmp *%rax
    5e44:	8b 45 ec             	mov    -0x14(%rbp),%eax
    5e47:	8d 50 01             	lea    0x1(%rax),%edx
    5e4a:	89 55 ec             	mov    %edx,-0x14(%rbp)
    5e4d:	48 63 d0             	movslq %eax,%rdx
    5e50:	48 8b 45 c8          	mov    -0x38(%rbp),%rax
    5e54:	48 01 d0             	add    %rdx,%rax
    5e57:	c6 00 49             	movb   $0x49,(%rax)
    5e5a:	8b 45 ec             	mov    -0x14(%rbp),%eax
    5e5d:	8d 50 01             	lea    0x1(%rax),%edx
    5e60:	89 55 ec             	mov    %edx,-0x14(%rbp)
    5e63:	48 63 d0             	movslq %eax,%rdx
    5e66:	48 8b 45 c8          	mov    -0x38(%rbp),%rax
    5e6a:	48 01 d0             	add    %rdx,%rax
    5e6d:	c6 00 89             	movb   $0x89,(%rax)
    5e70:	8b 45 ec             	mov    -0x14(%rbp),%eax
    5e73:	8d 50 01             	lea    0x1(%rax),%edx
    5e76:	89 55 ec             	mov    %edx,-0x14(%rbp)
    5e79:	48 63 d0             	movslq %eax,%rdx
    5e7c:	48 8b 45 c8          	mov    -0x38(%rbp),%rax
    5e80:	48 01 d0             	add    %rdx,%rax
    5e83:	c6 00 d2             	movb   $0xd2,(%rax)
    5e86:	e9 db 03 00 00       	jmp    6266 <move_var+0x4d63>
    5e8b:	8b 45 ec             	mov    -0x14(%rbp),%eax
    5e8e:	8d 50 01             	lea    0x1(%rax),%edx
    5e91:	89 55 ec             	mov    %edx,-0x14(%rbp)
    5e94:	48 63 d0             	movslq %eax,%rdx
    5e97:	48 8b 45 c8          	mov    -0x38(%rbp),%rax
    5e9b:	48 01 d0             	add    %rdx,%rax
    5e9e:	c6 00 49             	movb   $0x49,(%rax)
    5ea1:	8b 45 ec             	mov    -0x14(%rbp),%eax
    5ea4:	8d 50 01             	lea    0x1(%rax),%edx
    5ea7:	89 55 ec             	mov    %edx,-0x14(%rbp)
    5eaa:	48 63 d0             	movslq %eax,%rdx
    5ead:	48 8b 45 c8          	mov    -0x38(%rbp),%rax
    5eb1:	48 01 d0             	add    %rdx,%rax
    5eb4:	c6 00 89             	movb   $0x89,(%rax)
    5eb7:	8b 45 ec             	mov    -0x14(%rbp),%eax
    5eba:	8d 50 01             	lea    0x1(%rax),%edx
    5ebd:	89 55 ec             	mov    %edx,-0x14(%rbp)
    5ec0:	48 63 d0             	movslq %eax,%rdx
    5ec3:	48 8b 45 c8          	mov    -0x38(%rbp),%rax
    5ec7:	48 01 d0             	add    %rdx,%rax
    5eca:	c6 00 d3             	movb   $0xd3,(%rax)
    5ecd:	e9 94 03 00 00       	jmp    6266 <move_var+0x4d63>
    5ed2:	8b 45 ec             	mov    -0x14(%rbp),%eax
    5ed5:	8d 50 01             	lea    0x1(%rax),%edx
    5ed8:	89 55 ec             	mov    %edx,-0x14(%rbp)
    5edb:	48 63 d0             	movslq %eax,%rdx
    5ede:	48 8b 45 c8          	mov    -0x38(%rbp),%rax
    5ee2:	48 01 d0             	add    %rdx,%rax
    5ee5:	c6 00 49             	movb   $0x49,(%rax)
    5ee8:	8b 45 ec             	mov    -0x14(%rbp),%eax
    5eeb:	8d 50 01             	lea    0x1(%rax),%edx
    5eee:	89 55 ec             	mov    %edx,-0x14(%rbp)
    5ef1:	48 63 d0             	movslq %eax,%rdx
    5ef4:	48 8b 45 c8          	mov    -0x38(%rbp),%rax
    5ef8:	48 01 d0             	add    %rdx,%rax
    5efb:	c6 00 89             	movb   $0x89,(%rax)
    5efe:	8b 45 ec             	mov    -0x14(%rbp),%eax
    5f01:	8d 50 01             	lea    0x1(%rax),%edx
    5f04:	89 55 ec             	mov    %edx,-0x14(%rbp)
    5f07:	48 63 d0             	movslq %eax,%rdx
    5f0a:	48 8b 45 c8          	mov    -0x38(%rbp),%rax
    5f0e:	48 01 d0             	add    %rdx,%rax
    5f11:	c6 00 d4             	movb   $0xd4,(%rax)
    5f14:	e9 4d 03 00 00       	jmp    6266 <move_var+0x4d63>
    5f19:	8b 45 ec             	mov    -0x14(%rbp),%eax
    5f1c:	8d 50 01             	lea    0x1(%rax),%edx
    5f1f:	89 55 ec             	mov    %edx,-0x14(%rbp)
    5f22:	48 63 d0             	movslq %eax,%rdx
    5f25:	48 8b 45 c8          	mov    -0x38(%rbp),%rax
    5f29:	48 01 d0             	add    %rdx,%rax
    5f2c:	c6 00 49             	movb   $0x49,(%rax)
    5f2f:	8b 45 ec             	mov    -0x14(%rbp),%eax
    5f32:	8d 50 01             	lea    0x1(%rax),%edx
    5f35:	89 55 ec             	mov    %edx,-0x14(%rbp)
    5f38:	48 63 d0             	movslq %eax,%rdx
    5f3b:	48 8b 45 c8          	mov    -0x38(%rbp),%rax
    5f3f:	48 01 d0             	add    %rdx,%rax
    5f42:	c6 00 89             	movb   $0x89,(%rax)
    5f45:	8b 45 ec             	mov    -0x14(%rbp),%eax
    5f48:	8d 50 01             	lea    0x1(%rax),%edx
    5f4b:	89 55 ec             	mov    %edx,-0x14(%rbp)
    5f4e:	48 63 d0             	movslq %eax,%rdx
    5f51:	48 8b 45 c8          	mov    -0x38(%rbp),%rax
    5f55:	48 01 d0             	add    %rdx,%rax
    5f58:	c6 00 d5             	movb   $0xd5,(%rax)
    5f5b:	e9 06 03 00 00       	jmp    6266 <move_var+0x4d63>
    5f60:	8b 45 ec             	mov    -0x14(%rbp),%eax
    5f63:	8d 50 01             	lea    0x1(%rax),%edx
    5f66:	89 55 ec             	mov    %edx,-0x14(%rbp)
    5f69:	48 63 d0             	movslq %eax,%rdx
    5f6c:	48 8b 45 c8          	mov    -0x38(%rbp),%rax
    5f70:	48 01 d0             	add    %rdx,%rax
    5f73:	c6 00 49             	movb   $0x49,(%rax)
    5f76:	8b 45 ec             	mov    -0x14(%rbp),%eax
    5f79:	8d 50 01             	lea    0x1(%rax),%edx
    5f7c:	89 55 ec             	mov    %edx,-0x14(%rbp)
    5f7f:	48 63 d0             	movslq %eax,%rdx
    5f82:	48 8b 45 c8          	mov    -0x38(%rbp),%rax
    5f86:	48 01 d0             	add    %rdx,%rax
    5f89:	c6 00 89             	movb   $0x89,(%rax)
    5f8c:	8b 45 ec             	mov    -0x14(%rbp),%eax
    5f8f:	8d 50 01             	lea    0x1(%rax),%edx
    5f92:	89 55 ec             	mov    %edx,-0x14(%rbp)
    5f95:	48 63 d0             	movslq %eax,%rdx
    5f98:	48 8b 45 c8          	mov    -0x38(%rbp),%rax
    5f9c:	48 01 d0             	add    %rdx,%rax
    5f9f:	c6 00 d6             	movb   $0xd6,(%rax)
    5fa2:	e9 bf 02 00 00       	jmp    6266 <move_var+0x4d63>
    5fa7:	8b 45 ec             	mov    -0x14(%rbp),%eax
    5faa:	8d 50 01             	lea    0x1(%rax),%edx
    5fad:	89 55 ec             	mov    %edx,-0x14(%rbp)
    5fb0:	48 63 d0             	movslq %eax,%rdx
    5fb3:	48 8b 45 c8          	mov    -0x38(%rbp),%rax
    5fb7:	48 01 d0             	add    %rdx,%rax
    5fba:	c6 00 49             	movb   $0x49,(%rax)
    5fbd:	8b 45 ec             	mov    -0x14(%rbp),%eax
    5fc0:	8d 50 01             	lea    0x1(%rax),%edx
    5fc3:	89 55 ec             	mov    %edx,-0x14(%rbp)
    5fc6:	48 63 d0             	movslq %eax,%rdx
    5fc9:	48 8b 45 c8          	mov    -0x38(%rbp),%rax
    5fcd:	48 01 d0             	add    %rdx,%rax
    5fd0:	c6 00 89             	movb   $0x89,(%rax)
    5fd3:	8b 45 ec             	mov    -0x14(%rbp),%eax
    5fd6:	8d 50 01             	lea    0x1(%rax),%edx
    5fd9:	89 55 ec             	mov    %edx,-0x14(%rbp)
    5fdc:	48 63 d0             	movslq %eax,%rdx
    5fdf:	48 8b 45 c8          	mov    -0x38(%rbp),%rax
    5fe3:	48 01 d0             	add    %rdx,%rax
    5fe6:	c6 00 d7             	movb   $0xd7,(%rax)
    5fe9:	e9 78 02 00 00       	jmp    6266 <move_var+0x4d63>
    5fee:	8b 45 ec             	mov    -0x14(%rbp),%eax
    5ff1:	8d 50 01             	lea    0x1(%rax),%edx
    5ff4:	89 55 ec             	mov    %edx,-0x14(%rbp)
    5ff7:	48 63 d0             	movslq %eax,%rdx
    5ffa:	48 8b 45 c8          	mov    -0x38(%rbp),%rax
    5ffe:	48 01 d0             	add    %rdx,%rax
    6001:	c6 00 49             	movb   $0x49,(%rax)
    6004:	8b 45 ec             	mov    -0x14(%rbp),%eax
    6007:	8d 50 01             	lea    0x1(%rax),%edx
    600a:	89 55 ec             	mov    %edx,-0x14(%rbp)
    600d:	48 63 d0             	movslq %eax,%rdx
    6010:	48 8b 45 c8          	mov    -0x38(%rbp),%rax
    6014:	48 01 d0             	add    %rdx,%rax
    6017:	c6 00 89             	movb   $0x89,(%rax)
    601a:	8b 45 ec             	mov    -0x14(%rbp),%eax
    601d:	8d 50 01             	lea    0x1(%rax),%edx
    6020:	89 55 ec             	mov    %edx,-0x14(%rbp)
    6023:	48 63 d0             	movslq %eax,%rdx
    6026:	48 8b 45 c8          	mov    -0x38(%rbp),%rax
    602a:	48 01 d0             	add    %rdx,%rax
    602d:	c6 00 d0             	movb   $0xd0,(%rax)
    6030:	e9 31 02 00 00       	jmp    6266 <move_var+0x4d63>
    6035:	8b 45 ec             	mov    -0x14(%rbp),%eax
    6038:	8d 50 01             	lea    0x1(%rax),%edx
    603b:	89 55 ec             	mov    %edx,-0x14(%rbp)
    603e:	48 63 d0             	movslq %eax,%rdx
    6041:	48 8b 45 c8          	mov    -0x38(%rbp),%rax
    6045:	48 01 d0             	add    %rdx,%rax
    6048:	c6 00 49             	movb   $0x49,(%rax)
    604b:	8b 45 ec             	mov    -0x14(%rbp),%eax
    604e:	8d 50 01             	lea    0x1(%rax),%edx
    6051:	89 55 ec             	mov    %edx,-0x14(%rbp)
    6054:	48 63 d0             	movslq %eax,%rdx
    6057:	48 8b 45 c8          	mov    -0x38(%rbp),%rax
    605b:	48 01 d0             	add    %rdx,%rax
    605e:	c6 00 89             	movb   $0x89,(%rax)
    6061:	8b 45 ec             	mov    -0x14(%rbp),%eax
    6064:	8d 50 01             	lea    0x1(%rax),%edx
    6067:	89 55 ec             	mov    %edx,-0x14(%rbp)
    606a:	48 63 d0             	movslq %eax,%rdx
    606d:	48 8b 45 c8          	mov    -0x38(%rbp),%rax
    6071:	48 01 d0             	add    %rdx,%rax
    6074:	c6 00 d1             	movb   $0xd1,(%rax)
    6077:	e9 ea 01 00 00       	jmp    6266 <move_var+0x4d63>
    607c:	8b 45 ec             	mov    -0x14(%rbp),%eax
    607f:	8d 50 01             	lea    0x1(%rax),%edx
    6082:	89 55 ec             	mov    %edx,-0x14(%rbp)
    6085:	48 63 d0             	movslq %eax,%rdx
    6088:	48 8b 45 c8          	mov    -0x38(%rbp),%rax
    608c:	48 01 d0             	add    %rdx,%rax
    608f:	c6 00 48             	movb   $0x48,(%rax)
    6092:	8b 45 ec             	mov    -0x14(%rbp),%eax
    6095:	8d 50 01             	lea    0x1(%rax),%edx
    6098:	89 55 ec             	mov    %edx,-0x14(%rbp)
    609b:	48 63 d0             	movslq %eax,%rdx
    609e:	48 8b 45 c8          	mov    -0x38(%rbp),%rax
    60a2:	48 01 d0             	add    %rdx,%rax
    60a5:	c6 00 89             	movb   $0x89,(%rax)
    60a8:	8b 45 ec             	mov    -0x14(%rbp),%eax
    60ab:	8d 50 01             	lea    0x1(%rax),%edx
    60ae:	89 55 ec             	mov    %edx,-0x14(%rbp)
    60b1:	48 63 d0             	movslq %eax,%rdx
    60b4:	48 8b 45 c8          	mov    -0x38(%rbp),%rax
    60b8:	48 01 d0             	add    %rdx,%rax
    60bb:	c6 00 d0             	movb   $0xd0,(%rax)
    60be:	e9 a3 01 00 00       	jmp    6266 <move_var+0x4d63>
    60c3:	8b 45 ec             	mov    -0x14(%rbp),%eax
    60c6:	8d 50 01             	lea    0x1(%rax),%edx
    60c9:	89 55 ec             	mov    %edx,-0x14(%rbp)
    60cc:	48 63 d0             	movslq %eax,%rdx
    60cf:	48 8b 45 c8          	mov    -0x38(%rbp),%rax
    60d3:	48 01 d0             	add    %rdx,%rax
    60d6:	c6 00 48             	movb   $0x48,(%rax)
    60d9:	8b 45 ec             	mov    -0x14(%rbp),%eax
    60dc:	8d 50 01             	lea    0x1(%rax),%edx
    60df:	89 55 ec             	mov    %edx,-0x14(%rbp)
    60e2:	48 63 d0             	movslq %eax,%rdx
    60e5:	48 8b 45 c8          	mov    -0x38(%rbp),%rax
    60e9:	48 01 d0             	add    %rdx,%rax
    60ec:	c6 00 89             	movb   $0x89,(%rax)
    60ef:	8b 45 ec             	mov    -0x14(%rbp),%eax
    60f2:	8d 50 01             	lea    0x1(%rax),%edx
    60f5:	89 55 ec             	mov    %edx,-0x14(%rbp)
    60f8:	48 63 d0             	movslq %eax,%rdx
    60fb:	48 8b 45 c8          	mov    -0x38(%rbp),%rax
    60ff:	48 01 d0             	add    %rdx,%rax
    6102:	c6 00 d5             	movb   $0xd5,(%rax)
    6105:	e9 5c 01 00 00       	jmp    6266 <move_var+0x4d63>
    610a:	8b 45 ec             	mov    -0x14(%rbp),%eax
    610d:	8d 50 01             	lea    0x1(%rax),%edx
    6110:	89 55 ec             	mov    %edx,-0x14(%rbp)
    6113:	48 63 d0             	movslq %eax,%rdx
    6116:	48 8b 45 c8          	mov    -0x38(%rbp),%rax
    611a:	48 01 d0             	add    %rdx,%rax
    611d:	c6 00 48             	movb   $0x48,(%rax)
    6120:	8b 45 ec             	mov    -0x14(%rbp),%eax
    6123:	8d 50 01             	lea    0x1(%rax),%edx
    6126:	89 55 ec             	mov    %edx,-0x14(%rbp)
    6129:	48 63 d0             	movslq %eax,%rdx
    612c:	48 8b 45 c8          	mov    -0x38(%rbp),%rax
    6130:	48 01 d0             	add    %rdx,%rax
    6133:	c6 00 89             	movb   $0x89,(%rax)
    6136:	8b 45 ec             	mov    -0x14(%rbp),%eax
    6139:	8d 50 01             	lea    0x1(%rax),%edx
    613c:	89 55 ec             	mov    %edx,-0x14(%rbp)
    613f:	48 63 d0             	movslq %eax,%rdx
    6142:	48 8b 45 c8          	mov    -0x38(%rbp),%rax
    6146:	48 01 d0             	add    %rdx,%rax
    6149:	c6 00 d3             	movb   $0xd3,(%rax)
    614c:	e9 15 01 00 00       	jmp    6266 <move_var+0x4d63>
    6151:	8b 45 ec             	mov    -0x14(%rbp),%eax
    6154:	8d 50 01             	lea    0x1(%rax),%edx
    6157:	89 55 ec             	mov    %edx,-0x14(%rbp)
    615a:	48 63 d0             	movslq %eax,%rdx
    615d:	48 8b 45 c8          	mov    -0x38(%rbp),%rax
    6161:	48 01 d0             	add    %rdx,%rax
    6164:	c6 00 48             	movb   $0x48,(%rax)
    6167:	8b 45 ec             	mov    -0x14(%rbp),%eax
    616a:	8d 50 01             	lea    0x1(%rax),%edx
    616d:	89 55 ec             	mov    %edx,-0x14(%rbp)
    6170:	48 63 d0             	movslq %eax,%rdx
    6173:	48 8b 45 c8          	mov    -0x38(%rbp),%rax
    6177:	48 01 d0             	add    %rdx,%rax
    617a:	c6 00 89             	movb   $0x89,(%rax)
    617d:	8b 45 ec             	mov    -0x14(%rbp),%eax
    6180:	8d 50 01             	lea    0x1(%rax),%edx
    6183:	89 55 ec             	mov    %edx,-0x14(%rbp)
    6186:	48 63 d0             	movslq %eax,%rdx
    6189:	48 8b 45 c8          	mov    -0x38(%rbp),%rax
    618d:	48 01 d0             	add    %rdx,%rax
    6190:	c6 00 d1             	movb   $0xd1,(%rax)
    6193:	e9 ce 00 00 00       	jmp    6266 <move_var+0x4d63>
    6198:	8b 45 ec             	mov    -0x14(%rbp),%eax
    619b:	8d 50 01             	lea    0x1(%rax),%edx
    619e:	89 55 ec             	mov    %edx,-0x14(%rbp)
    61a1:	48 63 d0             	movslq %eax,%rdx
    61a4:	48 8b 45 c8          	mov    -0x38(%rbp),%rax
    61a8:	48 01 d0             	add    %rdx,%rax
    61ab:	c6 00 48             	movb   $0x48,(%rax)
    61ae:	8b 45 ec             	mov    -0x14(%rbp),%eax
    61b1:	8d 50 01             	lea    0x1(%rax),%edx
    61b4:	89 55 ec             	mov    %edx,-0x14(%rbp)
    61b7:	48 63 d0             	movslq %eax,%rdx
    61ba:	48 8b 45 c8          	mov    -0x38(%rbp),%rax
    61be:	48 01 d0             	add    %rdx,%rax
    61c1:	c6 00 89             	movb   $0x89,(%rax)
    61c4:	8b 45 ec             	mov    -0x14(%rbp),%eax
    61c7:	8d 50 01             	lea    0x1(%rax),%edx
    61ca:	89 55 ec             	mov    %edx,-0x14(%rbp)
    61cd:	48 63 d0             	movslq %eax,%rdx
    61d0:	48 8b 45 c8          	mov    -0x38(%rbp),%rax
    61d4:	48 01 d0             	add    %rdx,%rax
    61d7:	c6 00 d7             	movb   $0xd7,(%rax)
    61da:	e9 87 00 00 00       	jmp    6266 <move_var+0x4d63>
    61df:	8b 45 ec             	mov    -0x14(%rbp),%eax
    61e2:	8d 50 01             	lea    0x1(%rax),%edx
    61e5:	89 55 ec             	mov    %edx,-0x14(%rbp)
    61e8:	48 63 d0             	movslq %eax,%rdx
    61eb:	48 8b 45 c8          	mov    -0x38(%rbp),%rax
    61ef:	48 01 d0             	add    %rdx,%rax
    61f2:	c6 00 48             	movb   $0x48,(%rax)
    61f5:	8b 45 ec             	mov    -0x14(%rbp),%eax
    61f8:	8d 50 01             	lea    0x1(%rax),%edx
    61fb:	89 55 ec             	mov    %edx,-0x14(%rbp)
    61fe:	48 63 d0             	movslq %eax,%rdx
    6201:	48 8b 45 c8          	mov    -0x38(%rbp),%rax
    6205:	48 01 d0             	add    %rdx,%rax
    6208:	c6 00 89             	movb   $0x89,(%rax)
    620b:	8b 45 ec             	mov    -0x14(%rbp),%eax
    620e:	8d 50 01             	lea    0x1(%rax),%edx
    6211:	89 55 ec             	mov    %edx,-0x14(%rbp)
    6214:	48 63 d0             	movslq %eax,%rdx
    6217:	48 8b 45 c8          	mov    -0x38(%rbp),%rax
    621b:	48 01 d0             	add    %rdx,%rax
    621e:	c6 00 d6             	movb   $0xd6,(%rax)
    6221:	eb 43                	jmp    6266 <move_var+0x4d63>
    6223:	8b 45 ec             	mov    -0x14(%rbp),%eax
    6226:	8d 50 01             	lea    0x1(%rax),%edx
    6229:	89 55 ec             	mov    %edx,-0x14(%rbp)
    622c:	48 63 d0             	movslq %eax,%rdx
    622f:	48 8b 45 c8          	mov    -0x38(%rbp),%rax
    6233:	48 01 d0             	add    %rdx,%rax
    6236:	c6 00 48             	movb   $0x48,(%rax)
    6239:	8b 45 ec             	mov    -0x14(%rbp),%eax
    623c:	8d 50 01             	lea    0x1(%rax),%edx
    623f:	89 55 ec             	mov    %edx,-0x14(%rbp)
    6242:	48 63 d0             	movslq %eax,%rdx
    6245:	48 8b 45 c8          	mov    -0x38(%rbp),%rax
    6249:	48 01 d0             	add    %rdx,%rax
    624c:	c6 00 89             	movb   $0x89,(%rax)
    624f:	8b 45 ec             	mov    -0x14(%rbp),%eax
    6252:	8d 50 01             	lea    0x1(%rax),%edx
    6255:	89 55 ec             	mov    %edx,-0x14(%rbp)
    6258:	48 63 d0             	movslq %eax,%rdx
    625b:	48 8b 45 c8          	mov    -0x38(%rbp),%rax
    625f:	48 01 d0             	add    %rdx,%rax
    6262:	c6 00 d4             	movb   $0xd4,(%rax)
    6265:	90                   	nop
    6266:	e9 d6 0a 00 00       	jmp    6d41 <move_var+0x583e>
    626b:	48 81 7d f8 1a a7 88 	cmpq   $0xb88a71a,-0x8(%rbp)
    6272:	0b 
    6273:	0f 84 03 05 00 00    	je     677c <move_var+0x5279>
    6279:	48 81 7d f8 1a a7 88 	cmpq   $0xb88a71a,-0x8(%rbp)
    6280:	0b 
    6281:	0f 87 bd 0a 00 00    	ja     6d44 <move_var+0x5841>
    6287:	48 81 7d f8 33 a5 88 	cmpq   $0xb88a533,-0x8(%rbp)
    628e:	0b 
    628f:	0f 84 a3 04 00 00    	je     6738 <move_var+0x5235>
    6295:	48 81 7d f8 33 a5 88 	cmpq   $0xb88a533,-0x8(%rbp)
    629c:	0b 
    629d:	0f 87 a1 0a 00 00    	ja     6d44 <move_var+0x5841>
    62a3:	48 81 7d f8 24 a5 88 	cmpq   $0xb88a524,-0x8(%rbp)
    62aa:	0b 
    62ab:	0f 84 40 04 00 00    	je     66f1 <move_var+0x51ee>
    62b1:	48 81 7d f8 24 a5 88 	cmpq   $0xb88a524,-0x8(%rbp)
    62b8:	0b 
    62b9:	0f 87 85 0a 00 00    	ja     6d44 <move_var+0x5841>
    62bf:	48 81 7d f8 12 a5 88 	cmpq   $0xb88a512,-0x8(%rbp)
    62c6:	0b 
    62c7:	0f 84 dd 03 00 00    	je     66aa <move_var+0x51a7>
    62cd:	48 81 7d f8 12 a5 88 	cmpq   $0xb88a512,-0x8(%rbp)
    62d4:	0b 
    62d5:	0f 87 69 0a 00 00    	ja     6d44 <move_var+0x5841>
    62db:	48 81 7d f8 f1 a4 88 	cmpq   $0xb88a4f1,-0x8(%rbp)
    62e2:	0b 
    62e3:	0f 84 7a 03 00 00    	je     6663 <move_var+0x5160>
    62e9:	48 81 7d f8 f1 a4 88 	cmpq   $0xb88a4f1,-0x8(%rbp)
    62f0:	0b 
    62f1:	0f 87 4d 0a 00 00    	ja     6d44 <move_var+0x5841>
    62f7:	48 81 7d f8 e9 a4 88 	cmpq   $0xb88a4e9,-0x8(%rbp)
    62fe:	0b 
    62ff:	0f 84 17 03 00 00    	je     661c <move_var+0x5119>
    6305:	48 81 7d f8 e9 a4 88 	cmpq   $0xb88a4e9,-0x8(%rbp)
    630c:	0b 
    630d:	0f 87 31 0a 00 00    	ja     6d44 <move_var+0x5841>
    6313:	48 81 7d f8 d0 a4 88 	cmpq   $0xb88a4d0,-0x8(%rbp)
    631a:	0b 
    631b:	0f 84 b4 02 00 00    	je     65d5 <move_var+0x50d2>
    6321:	48 81 7d f8 d0 a4 88 	cmpq   $0xb88a4d0,-0x8(%rbp)
    6328:	0b 
    6329:	0f 87 15 0a 00 00    	ja     6d44 <move_var+0x5841>
    632f:	48 81 7d f8 5d 9e 88 	cmpq   $0xb889e5d,-0x8(%rbp)
    6336:	0b 
    6337:	0f 87 07 0a 00 00    	ja     6d44 <move_var+0x5841>
    633d:	48 81 7d f8 58 9e 88 	cmpq   $0xb889e58,-0x8(%rbp)
    6344:	0b 
    6345:	73 21                	jae    6368 <move_var+0x4e65>
    6347:	48 81 7d f8 2f 79 59 	cmpq   $0x59792f,-0x8(%rbp)
    634e:	00 
    634f:	0f 84 f2 01 00 00    	je     6547 <move_var+0x5044>
    6355:	48 81 7d f8 30 79 59 	cmpq   $0x597930,-0x8(%rbp)
    635c:	00 
    635d:	0f 84 2b 02 00 00    	je     658e <move_var+0x508b>
    6363:	e9 dc 09 00 00       	jmp    6d44 <move_var+0x5841>
    6368:	48 8b 45 f8          	mov    -0x8(%rbp),%rax
    636c:	48 2d 58 9e 88 0b    	sub    $0xb889e58,%rax
    6372:	48 83 f8 05          	cmp    $0x5,%rax
    6376:	0f 87 c8 09 00 00    	ja     6d44 <move_var+0x5841>
    637c:	48 8d 14 85 00 00 00 	lea    0x0(,%rax,4),%rdx
    6383:	00 
    6384:	48 8d 05 1d 0e 00 00 	lea    0xe1d(%rip),%rax        # 71a8 <_IO_stdin_used+0x1a8>
    638b:	8b 04 02             	mov    (%rdx,%rax,1),%eax
    638e:	48 98                	cltq
    6390:	48 8d 15 11 0e 00 00 	lea    0xe11(%rip),%rdx        # 71a8 <_IO_stdin_used+0x1a8>
    6397:	48 01 d0             	add    %rdx,%rax
    639a:	3e ff e0             	notrack jmp *%rax
    639d:	8b 45 ec             	mov    -0x14(%rbp),%eax
    63a0:	8d 50 01             	lea    0x1(%rax),%edx
    63a3:	89 55 ec             	mov    %edx,-0x14(%rbp)
    63a6:	48 63 d0             	movslq %eax,%rdx
    63a9:	48 8b 45 c8          	mov    -0x38(%rbp),%rax
    63ad:	48 01 d0             	add    %rdx,%rax
    63b0:	c6 00 49             	movb   $0x49,(%rax)
    63b3:	8b 45 ec             	mov    -0x14(%rbp),%eax
    63b6:	8d 50 01             	lea    0x1(%rax),%edx
    63b9:	89 55 ec             	mov    %edx,-0x14(%rbp)
    63bc:	48 63 d0             	movslq %eax,%rdx
    63bf:	48 8b 45 c8          	mov    -0x38(%rbp),%rax
    63c3:	48 01 d0             	add    %rdx,%rax
    63c6:	c6 00 89             	movb   $0x89,(%rax)
    63c9:	8b 45 ec             	mov    -0x14(%rbp),%eax
    63cc:	8d 50 01             	lea    0x1(%rax),%edx
    63cf:	89 55 ec             	mov    %edx,-0x14(%rbp)
    63d2:	48 63 d0             	movslq %eax,%rdx
    63d5:	48 8b 45 c8          	mov    -0x38(%rbp),%rax
    63d9:	48 01 d0             	add    %rdx,%rax
    63dc:	c6 00 f2             	movb   $0xf2,(%rax)
    63df:	e9 db 03 00 00       	jmp    67bf <move_var+0x52bc>
    63e4:	8b 45 ec             	mov    -0x14(%rbp),%eax
    63e7:	8d 50 01             	lea    0x1(%rax),%edx
    63ea:	89 55 ec             	mov    %edx,-0x14(%rbp)
    63ed:	48 63 d0             	movslq %eax,%rdx
    63f0:	48 8b 45 c8          	mov    -0x38(%rbp),%rax
    63f4:	48 01 d0             	add    %rdx,%rax
    63f7:	c6 00 49             	movb   $0x49,(%rax)
    63fa:	8b 45 ec             	mov    -0x14(%rbp),%eax
    63fd:	8d 50 01             	lea    0x1(%rax),%edx
    6400:	89 55 ec             	mov    %edx,-0x14(%rbp)
    6403:	48 63 d0             	movslq %eax,%rdx
    6406:	48 8b 45 c8          	mov    -0x38(%rbp),%rax
    640a:	48 01 d0             	add    %rdx,%rax
    640d:	c6 00 89             	movb   $0x89,(%rax)
    6410:	8b 45 ec             	mov    -0x14(%rbp),%eax
    6413:	8d 50 01             	lea    0x1(%rax),%edx
    6416:	89 55 ec             	mov    %edx,-0x14(%rbp)
    6419:	48 63 d0             	movslq %eax,%rdx
    641c:	48 8b 45 c8          	mov    -0x38(%rbp),%rax
    6420:	48 01 d0             	add    %rdx,%rax
    6423:	c6 00 f3             	movb   $0xf3,(%rax)
    6426:	e9 94 03 00 00       	jmp    67bf <move_var+0x52bc>
    642b:	8b 45 ec             	mov    -0x14(%rbp),%eax
    642e:	8d 50 01             	lea    0x1(%rax),%edx
    6431:	89 55 ec             	mov    %edx,-0x14(%rbp)
    6434:	48 63 d0             	movslq %eax,%rdx
    6437:	48 8b 45 c8          	mov    -0x38(%rbp),%rax
    643b:	48 01 d0             	add    %rdx,%rax
    643e:	c6 00 49             	movb   $0x49,(%rax)
    6441:	8b 45 ec             	mov    -0x14(%rbp),%eax
    6444:	8d 50 01             	lea    0x1(%rax),%edx
    6447:	89 55 ec             	mov    %edx,-0x14(%rbp)
    644a:	48 63 d0             	movslq %eax,%rdx
    644d:	48 8b 45 c8          	mov    -0x38(%rbp),%rax
    6451:	48 01 d0             	add    %rdx,%rax
    6454:	c6 00 89             	movb   $0x89,(%rax)
    6457:	8b 45 ec             	mov    -0x14(%rbp),%eax
    645a:	8d 50 01             	lea    0x1(%rax),%edx
    645d:	89 55 ec             	mov    %edx,-0x14(%rbp)
    6460:	48 63 d0             	movslq %eax,%rdx
    6463:	48 8b 45 c8          	mov    -0x38(%rbp),%rax
    6467:	48 01 d0             	add    %rdx,%rax
    646a:	c6 00 f4             	movb   $0xf4,(%rax)
    646d:	e9 4d 03 00 00       	jmp    67bf <move_var+0x52bc>
    6472:	8b 45 ec             	mov    -0x14(%rbp),%eax
    6475:	8d 50 01             	lea    0x1(%rax),%edx
    6478:	89 55 ec             	mov    %edx,-0x14(%rbp)
    647b:	48 63 d0             	movslq %eax,%rdx
    647e:	48 8b 45 c8          	mov    -0x38(%rbp),%rax
    6482:	48 01 d0             	add    %rdx,%rax
    6485:	c6 00 49             	movb   $0x49,(%rax)
    6488:	8b 45 ec             	mov    -0x14(%rbp),%eax
    648b:	8d 50 01             	lea    0x1(%rax),%edx
    648e:	89 55 ec             	mov    %edx,-0x14(%rbp)
    6491:	48 63 d0             	movslq %eax,%rdx
    6494:	48 8b 45 c8          	mov    -0x38(%rbp),%rax
    6498:	48 01 d0             	add    %rdx,%rax
    649b:	c6 00 89             	movb   $0x89,(%rax)
    649e:	8b 45 ec             	mov    -0x14(%rbp),%eax
    64a1:	8d 50 01             	lea    0x1(%rax),%edx
    64a4:	89 55 ec             	mov    %edx,-0x14(%rbp)
    64a7:	48 63 d0             	movslq %eax,%rdx
    64aa:	48 8b 45 c8          	mov    -0x38(%rbp),%rax
    64ae:	48 01 d0             	add    %rdx,%rax
    64b1:	c6 00 f5             	movb   $0xf5,(%rax)
    64b4:	e9 06 03 00 00       	jmp    67bf <move_var+0x52bc>
    64b9:	8b 45 ec             	mov    -0x14(%rbp),%eax
    64bc:	8d 50 01             	lea    0x1(%rax),%edx
    64bf:	89 55 ec             	mov    %edx,-0x14(%rbp)
    64c2:	48 63 d0             	movslq %eax,%rdx
    64c5:	48 8b 45 c8          	mov    -0x38(%rbp),%rax
    64c9:	48 01 d0             	add    %rdx,%rax
    64cc:	c6 00 49             	movb   $0x49,(%rax)
    64cf:	8b 45 ec             	mov    -0x14(%rbp),%eax
    64d2:	8d 50 01             	lea    0x1(%rax),%edx
    64d5:	89 55 ec             	mov    %edx,-0x14(%rbp)
    64d8:	48 63 d0             	movslq %eax,%rdx
    64db:	48 8b 45 c8          	mov    -0x38(%rbp),%rax
    64df:	48 01 d0             	add    %rdx,%rax
    64e2:	c6 00 89             	movb   $0x89,(%rax)
    64e5:	8b 45 ec             	mov    -0x14(%rbp),%eax
    64e8:	8d 50 01             	lea    0x1(%rax),%edx
    64eb:	89 55 ec             	mov    %edx,-0x14(%rbp)
    64ee:	48 63 d0             	movslq %eax,%rdx
    64f1:	48 8b 45 c8          	mov    -0x38(%rbp),%rax
    64f5:	48 01 d0             	add    %rdx,%rax
    64f8:	c6 00 f6             	movb   $0xf6,(%rax)
    64fb:	e9 bf 02 00 00       	jmp    67bf <move_var+0x52bc>
    6500:	8b 45 ec             	mov    -0x14(%rbp),%eax
    6503:	8d 50 01             	lea    0x1(%rax),%edx
    6506:	89 55 ec             	mov    %edx,-0x14(%rbp)
    6509:	48 63 d0             	movslq %eax,%rdx
    650c:	48 8b 45 c8          	mov    -0x38(%rbp),%rax
    6510:	48 01 d0             	add    %rdx,%rax
    6513:	c6 00 49             	movb   $0x49,(%rax)
    6516:	8b 45 ec             	mov    -0x14(%rbp),%eax
    6519:	8d 50 01             	lea    0x1(%rax),%edx
    651c:	89 55 ec             	mov    %edx,-0x14(%rbp)
    651f:	48 63 d0             	movslq %eax,%rdx
    6522:	48 8b 45 c8          	mov    -0x38(%rbp),%rax
    6526:	48 01 d0             	add    %rdx,%rax
    6529:	c6 00 89             	movb   $0x89,(%rax)
    652c:	8b 45 ec             	mov    -0x14(%rbp),%eax
    652f:	8d 50 01             	lea    0x1(%rax),%edx
    6532:	89 55 ec             	mov    %edx,-0x14(%rbp)
    6535:	48 63 d0             	movslq %eax,%rdx
    6538:	48 8b 45 c8          	mov    -0x38(%rbp),%rax
    653c:	48 01 d0             	add    %rdx,%rax
    653f:	c6 00 f7             	movb   $0xf7,(%rax)
    6542:	e9 78 02 00 00       	jmp    67bf <move_var+0x52bc>
    6547:	8b 45 ec             	mov    -0x14(%rbp),%eax
    654a:	8d 50 01             	lea    0x1(%rax),%edx
    654d:	89 55 ec             	mov    %edx,-0x14(%rbp)
    6550:	48 63 d0             	movslq %eax,%rdx
    6553:	48 8b 45 c8          	mov    -0x38(%rbp),%rax
    6557:	48 01 d0             	add    %rdx,%rax
    655a:	c6 00 49             	movb   $0x49,(%rax)
    655d:	8b 45 ec             	mov    -0x14(%rbp),%eax
    6560:	8d 50 01             	lea    0x1(%rax),%edx
    6563:	89 55 ec             	mov    %edx,-0x14(%rbp)
    6566:	48 63 d0             	movslq %eax,%rdx
    6569:	48 8b 45 c8          	mov    -0x38(%rbp),%rax
    656d:	48 01 d0             	add    %rdx,%rax
    6570:	c6 00 89             	movb   $0x89,(%rax)
    6573:	8b 45 ec             	mov    -0x14(%rbp),%eax
    6576:	8d 50 01             	lea    0x1(%rax),%edx
    6579:	89 55 ec             	mov    %edx,-0x14(%rbp)
    657c:	48 63 d0             	movslq %eax,%rdx
    657f:	48 8b 45 c8          	mov    -0x38(%rbp),%rax
    6583:	48 01 d0             	add    %rdx,%rax
    6586:	c6 00 f0             	movb   $0xf0,(%rax)
    6589:	e9 31 02 00 00       	jmp    67bf <move_var+0x52bc>
    658e:	8b 45 ec             	mov    -0x14(%rbp),%eax
    6591:	8d 50 01             	lea    0x1(%rax),%edx
    6594:	89 55 ec             	mov    %edx,-0x14(%rbp)
    6597:	48 63 d0             	movslq %eax,%rdx
    659a:	48 8b 45 c8          	mov    -0x38(%rbp),%rax
    659e:	48 01 d0             	add    %rdx,%rax
    65a1:	c6 00 49             	movb   $0x49,(%rax)
    65a4:	8b 45 ec             	mov    -0x14(%rbp),%eax
    65a7:	8d 50 01             	lea    0x1(%rax),%edx
    65aa:	89 55 ec             	mov    %edx,-0x14(%rbp)
    65ad:	48 63 d0             	movslq %eax,%rdx
    65b0:	48 8b 45 c8          	mov    -0x38(%rbp),%rax
    65b4:	48 01 d0             	add    %rdx,%rax
    65b7:	c6 00 89             	movb   $0x89,(%rax)
    65ba:	8b 45 ec             	mov    -0x14(%rbp),%eax
    65bd:	8d 50 01             	lea    0x1(%rax),%edx
    65c0:	89 55 ec             	mov    %edx,-0x14(%rbp)
    65c3:	48 63 d0             	movslq %eax,%rdx
    65c6:	48 8b 45 c8          	mov    -0x38(%rbp),%rax
    65ca:	48 01 d0             	add    %rdx,%rax
    65cd:	c6 00 f1             	movb   $0xf1,(%rax)
    65d0:	e9 ea 01 00 00       	jmp    67bf <move_var+0x52bc>
    65d5:	8b 45 ec             	mov    -0x14(%rbp),%eax
    65d8:	8d 50 01             	lea    0x1(%rax),%edx
    65db:	89 55 ec             	mov    %edx,-0x14(%rbp)
    65de:	48 63 d0             	movslq %eax,%rdx
    65e1:	48 8b 45 c8          	mov    -0x38(%rbp),%rax
    65e5:	48 01 d0             	add    %rdx,%rax
    65e8:	c6 00 48             	movb   $0x48,(%rax)
    65eb:	8b 45 ec             	mov    -0x14(%rbp),%eax
    65ee:	8d 50 01             	lea    0x1(%rax),%edx
    65f1:	89 55 ec             	mov    %edx,-0x14(%rbp)
    65f4:	48 63 d0             	movslq %eax,%rdx
    65f7:	48 8b 45 c8          	mov    -0x38(%rbp),%rax
    65fb:	48 01 d0             	add    %rdx,%rax
    65fe:	c6 00 89             	movb   $0x89,(%rax)
    6601:	8b 45 ec             	mov    -0x14(%rbp),%eax
    6604:	8d 50 01             	lea    0x1(%rax),%edx
    6607:	89 55 ec             	mov    %edx,-0x14(%rbp)
    660a:	48 63 d0             	movslq %eax,%rdx
    660d:	48 8b 45 c8          	mov    -0x38(%rbp),%rax
    6611:	48 01 d0             	add    %rdx,%rax
    6614:	c6 00 f0             	movb   $0xf0,(%rax)
    6617:	e9 a3 01 00 00       	jmp    67bf <move_var+0x52bc>
    661c:	8b 45 ec             	mov    -0x14(%rbp),%eax
    661f:	8d 50 01             	lea    0x1(%rax),%edx
    6622:	89 55 ec             	mov    %edx,-0x14(%rbp)
    6625:	48 63 d0             	movslq %eax,%rdx
    6628:	48 8b 45 c8          	mov    -0x38(%rbp),%rax
    662c:	48 01 d0             	add    %rdx,%rax
    662f:	c6 00 48             	movb   $0x48,(%rax)
    6632:	8b 45 ec             	mov    -0x14(%rbp),%eax
    6635:	8d 50 01             	lea    0x1(%rax),%edx
    6638:	89 55 ec             	mov    %edx,-0x14(%rbp)
    663b:	48 63 d0             	movslq %eax,%rdx
    663e:	48 8b 45 c8          	mov    -0x38(%rbp),%rax
    6642:	48 01 d0             	add    %rdx,%rax
    6645:	c6 00 89             	movb   $0x89,(%rax)
    6648:	8b 45 ec             	mov    -0x14(%rbp),%eax
    664b:	8d 50 01             	lea    0x1(%rax),%edx
    664e:	89 55 ec             	mov    %edx,-0x14(%rbp)
    6651:	48 63 d0             	movslq %eax,%rdx
    6654:	48 8b 45 c8          	mov    -0x38(%rbp),%rax
    6658:	48 01 d0             	add    %rdx,%rax
    665b:	c6 00 f5             	movb   $0xf5,(%rax)
    665e:	e9 5c 01 00 00       	jmp    67bf <move_var+0x52bc>
    6663:	8b 45 ec             	mov    -0x14(%rbp),%eax
    6666:	8d 50 01             	lea    0x1(%rax),%edx
    6669:	89 55 ec             	mov    %edx,-0x14(%rbp)
    666c:	48 63 d0             	movslq %eax,%rdx
    666f:	48 8b 45 c8          	mov    -0x38(%rbp),%rax
    6673:	48 01 d0             	add    %rdx,%rax
    6676:	c6 00 48             	movb   $0x48,(%rax)
    6679:	8b 45 ec             	mov    -0x14(%rbp),%eax
    667c:	8d 50 01             	lea    0x1(%rax),%edx
    667f:	89 55 ec             	mov    %edx,-0x14(%rbp)
    6682:	48 63 d0             	movslq %eax,%rdx
    6685:	48 8b 45 c8          	mov    -0x38(%rbp),%rax
    6689:	48 01 d0             	add    %rdx,%rax
    668c:	c6 00 89             	movb   $0x89,(%rax)
    668f:	8b 45 ec             	mov    -0x14(%rbp),%eax
    6692:	8d 50 01             	lea    0x1(%rax),%edx
    6695:	89 55 ec             	mov    %edx,-0x14(%rbp)
    6698:	48 63 d0             	movslq %eax,%rdx
    669b:	48 8b 45 c8          	mov    -0x38(%rbp),%rax
    669f:	48 01 d0             	add    %rdx,%rax
    66a2:	c6 00 f3             	movb   $0xf3,(%rax)
    66a5:	e9 15 01 00 00       	jmp    67bf <move_var+0x52bc>
    66aa:	8b 45 ec             	mov    -0x14(%rbp),%eax
    66ad:	8d 50 01             	lea    0x1(%rax),%edx
    66b0:	89 55 ec             	mov    %edx,-0x14(%rbp)
    66b3:	48 63 d0             	movslq %eax,%rdx
    66b6:	48 8b 45 c8          	mov    -0x38(%rbp),%rax
    66ba:	48 01 d0             	add    %rdx,%rax
    66bd:	c6 00 48             	movb   $0x48,(%rax)
    66c0:	8b 45 ec             	mov    -0x14(%rbp),%eax
    66c3:	8d 50 01             	lea    0x1(%rax),%edx
    66c6:	89 55 ec             	mov    %edx,-0x14(%rbp)
    66c9:	48 63 d0             	movslq %eax,%rdx
    66cc:	48 8b 45 c8          	mov    -0x38(%rbp),%rax
    66d0:	48 01 d0             	add    %rdx,%rax
    66d3:	c6 00 89             	movb   $0x89,(%rax)
    66d6:	8b 45 ec             	mov    -0x14(%rbp),%eax
    66d9:	8d 50 01             	lea    0x1(%rax),%edx
    66dc:	89 55 ec             	mov    %edx,-0x14(%rbp)
    66df:	48 63 d0             	movslq %eax,%rdx
    66e2:	48 8b 45 c8          	mov    -0x38(%rbp),%rax
    66e6:	48 01 d0             	add    %rdx,%rax
    66e9:	c6 00 f1             	movb   $0xf1,(%rax)
    66ec:	e9 ce 00 00 00       	jmp    67bf <move_var+0x52bc>
    66f1:	8b 45 ec             	mov    -0x14(%rbp),%eax
    66f4:	8d 50 01             	lea    0x1(%rax),%edx
    66f7:	89 55 ec             	mov    %edx,-0x14(%rbp)
    66fa:	48 63 d0             	movslq %eax,%rdx
    66fd:	48 8b 45 c8          	mov    -0x38(%rbp),%rax
    6701:	48 01 d0             	add    %rdx,%rax
    6704:	c6 00 48             	movb   $0x48,(%rax)
    6707:	8b 45 ec             	mov    -0x14(%rbp),%eax
    670a:	8d 50 01             	lea    0x1(%rax),%edx
    670d:	89 55 ec             	mov    %edx,-0x14(%rbp)
    6710:	48 63 d0             	movslq %eax,%rdx
    6713:	48 8b 45 c8          	mov    -0x38(%rbp),%rax
    6717:	48 01 d0             	add    %rdx,%rax
    671a:	c6 00 89             	movb   $0x89,(%rax)
    671d:	8b 45 ec             	mov    -0x14(%rbp),%eax
    6720:	8d 50 01             	lea    0x1(%rax),%edx
    6723:	89 55 ec             	mov    %edx,-0x14(%rbp)
    6726:	48 63 d0             	movslq %eax,%rdx
    6729:	48 8b 45 c8          	mov    -0x38(%rbp),%rax
    672d:	48 01 d0             	add    %rdx,%rax
    6730:	c6 00 f7             	movb   $0xf7,(%rax)
    6733:	e9 87 00 00 00       	jmp    67bf <move_var+0x52bc>
    6738:	8b 45 ec             	mov    -0x14(%rbp),%eax
    673b:	8d 50 01             	lea    0x1(%rax),%edx
    673e:	89 55 ec             	mov    %edx,-0x14(%rbp)
    6741:	48 63 d0             	movslq %eax,%rdx
    6744:	48 8b 45 c8          	mov    -0x38(%rbp),%rax
    6748:	48 01 d0             	add    %rdx,%rax
    674b:	c6 00 48             	movb   $0x48,(%rax)
    674e:	8b 45 ec             	mov    -0x14(%rbp),%eax
    6751:	8d 50 01             	lea    0x1(%rax),%edx
    6754:	89 55 ec             	mov    %edx,-0x14(%rbp)
    6757:	48 63 d0             	movslq %eax,%rdx
    675a:	48 8b 45 c8          	mov    -0x38(%rbp),%rax
    675e:	48 01 d0             	add    %rdx,%rax
    6761:	c6 00 89             	movb   $0x89,(%rax)
    6764:	8b 45 ec             	mov    -0x14(%rbp),%eax
    6767:	8d 50 01             	lea    0x1(%rax),%edx
    676a:	89 55 ec             	mov    %edx,-0x14(%rbp)
    676d:	48 63 d0             	movslq %eax,%rdx
    6770:	48 8b 45 c8          	mov    -0x38(%rbp),%rax
    6774:	48 01 d0             	add    %rdx,%rax
    6777:	c6 00 f2             	movb   $0xf2,(%rax)
    677a:	eb 43                	jmp    67bf <move_var+0x52bc>
    677c:	8b 45 ec             	mov    -0x14(%rbp),%eax
    677f:	8d 50 01             	lea    0x1(%rax),%edx
    6782:	89 55 ec             	mov    %edx,-0x14(%rbp)
    6785:	48 63 d0             	movslq %eax,%rdx
    6788:	48 8b 45 c8          	mov    -0x38(%rbp),%rax
    678c:	48 01 d0             	add    %rdx,%rax
    678f:	c6 00 48             	movb   $0x48,(%rax)
    6792:	8b 45 ec             	mov    -0x14(%rbp),%eax
    6795:	8d 50 01             	lea    0x1(%rax),%edx
    6798:	89 55 ec             	mov    %edx,-0x14(%rbp)
    679b:	48 63 d0             	movslq %eax,%rdx
    679e:	48 8b 45 c8          	mov    -0x38(%rbp),%rax
    67a2:	48 01 d0             	add    %rdx,%rax
    67a5:	c6 00 89             	movb   $0x89,(%rax)
    67a8:	8b 45 ec             	mov    -0x14(%rbp),%eax
    67ab:	8d 50 01             	lea    0x1(%rax),%edx
    67ae:	89 55 ec             	mov    %edx,-0x14(%rbp)
    67b1:	48 63 d0             	movslq %eax,%rdx
    67b4:	48 8b 45 c8          	mov    -0x38(%rbp),%rax
    67b8:	48 01 d0             	add    %rdx,%rax
    67bb:	c6 00 f4             	movb   $0xf4,(%rax)
    67be:	90                   	nop
    67bf:	e9 80 05 00 00       	jmp    6d44 <move_var+0x5841>
    67c4:	48 81 7d f8 13 a7 88 	cmpq   $0xb88a713,-0x8(%rbp)
    67cb:	0b 
    67cc:	0f 84 03 05 00 00    	je     6cd5 <move_var+0x57d2>
    67d2:	48 81 7d f8 13 a7 88 	cmpq   $0xb88a713,-0x8(%rbp)
    67d9:	0b 
    67da:	0f 87 67 05 00 00    	ja     6d47 <move_var+0x5844>
    67e0:	48 81 7d f8 33 a5 88 	cmpq   $0xb88a533,-0x8(%rbp)
    67e7:	0b 
    67e8:	0f 84 a3 04 00 00    	je     6c91 <move_var+0x578e>
    67ee:	48 81 7d f8 33 a5 88 	cmpq   $0xb88a533,-0x8(%rbp)
    67f5:	0b 
    67f6:	0f 87 4b 05 00 00    	ja     6d47 <move_var+0x5844>
    67fc:	48 81 7d f8 24 a5 88 	cmpq   $0xb88a524,-0x8(%rbp)
    6803:	0b 
    6804:	0f 84 40 04 00 00    	je     6c4a <move_var+0x5747>
    680a:	48 81 7d f8 24 a5 88 	cmpq   $0xb88a524,-0x8(%rbp)
    6811:	0b 
    6812:	0f 87 2f 05 00 00    	ja     6d47 <move_var+0x5844>
    6818:	48 81 7d f8 12 a5 88 	cmpq   $0xb88a512,-0x8(%rbp)
    681f:	0b 
    6820:	0f 84 dd 03 00 00    	je     6c03 <move_var+0x5700>
    6826:	48 81 7d f8 12 a5 88 	cmpq   $0xb88a512,-0x8(%rbp)
    682d:	0b 
    682e:	0f 87 13 05 00 00    	ja     6d47 <move_var+0x5844>
    6834:	48 81 7d f8 f1 a4 88 	cmpq   $0xb88a4f1,-0x8(%rbp)
    683b:	0b 
    683c:	0f 84 7a 03 00 00    	je     6bbc <move_var+0x56b9>
    6842:	48 81 7d f8 f1 a4 88 	cmpq   $0xb88a4f1,-0x8(%rbp)
    6849:	0b 
    684a:	0f 87 f7 04 00 00    	ja     6d47 <move_var+0x5844>
    6850:	48 81 7d f8 e9 a4 88 	cmpq   $0xb88a4e9,-0x8(%rbp)
    6857:	0b 
    6858:	0f 84 17 03 00 00    	je     6b75 <move_var+0x5672>
    685e:	48 81 7d f8 e9 a4 88 	cmpq   $0xb88a4e9,-0x8(%rbp)
    6865:	0b 
    6866:	0f 87 db 04 00 00    	ja     6d47 <move_var+0x5844>
    686c:	48 81 7d f8 d0 a4 88 	cmpq   $0xb88a4d0,-0x8(%rbp)
    6873:	0b 
    6874:	0f 84 b4 02 00 00    	je     6b2e <move_var+0x562b>
    687a:	48 81 7d f8 d0 a4 88 	cmpq   $0xb88a4d0,-0x8(%rbp)
    6881:	0b 
    6882:	0f 87 bf 04 00 00    	ja     6d47 <move_var+0x5844>
    6888:	48 81 7d f8 5d 9e 88 	cmpq   $0xb889e5d,-0x8(%rbp)
    688f:	0b 
    6890:	0f 87 b1 04 00 00    	ja     6d47 <move_var+0x5844>
    6896:	48 81 7d f8 58 9e 88 	cmpq   $0xb889e58,-0x8(%rbp)
    689d:	0b 
    689e:	73 21                	jae    68c1 <move_var+0x53be>
    68a0:	48 81 7d f8 2f 79 59 	cmpq   $0x59792f,-0x8(%rbp)
    68a7:	00 
    68a8:	0f 84 f2 01 00 00    	je     6aa0 <move_var+0x559d>
    68ae:	48 81 7d f8 30 79 59 	cmpq   $0x597930,-0x8(%rbp)
    68b5:	00 
    68b6:	0f 84 2b 02 00 00    	je     6ae7 <move_var+0x55e4>
    68bc:	e9 86 04 00 00       	jmp    6d47 <move_var+0x5844>
    68c1:	48 8b 45 f8          	mov    -0x8(%rbp),%rax
    68c5:	48 2d 58 9e 88 0b    	sub    $0xb889e58,%rax
    68cb:	48 83 f8 05          	cmp    $0x5,%rax
    68cf:	0f 87 72 04 00 00    	ja     6d47 <move_var+0x5844>
    68d5:	48 8d 14 85 00 00 00 	lea    0x0(,%rax,4),%rdx
    68dc:	00 
    68dd:	48 8d 05 dc 08 00 00 	lea    0x8dc(%rip),%rax        # 71c0 <_IO_stdin_used+0x1c0>
    68e4:	8b 04 02             	mov    (%rdx,%rax,1),%eax
    68e7:	48 98                	cltq
    68e9:	48 8d 15 d0 08 00 00 	lea    0x8d0(%rip),%rdx        # 71c0 <_IO_stdin_used+0x1c0>
    68f0:	48 01 d0             	add    %rdx,%rax
    68f3:	3e ff e0             	notrack jmp *%rax
    68f6:	8b 45 ec             	mov    -0x14(%rbp),%eax
    68f9:	8d 50 01             	lea    0x1(%rax),%edx
    68fc:	89 55 ec             	mov    %edx,-0x14(%rbp)
    68ff:	48 63 d0             	movslq %eax,%rdx
    6902:	48 8b 45 c8          	mov    -0x38(%rbp),%rax
    6906:	48 01 d0             	add    %rdx,%rax
    6909:	c6 00 49             	movb   $0x49,(%rax)
    690c:	8b 45 ec             	mov    -0x14(%rbp),%eax
    690f:	8d 50 01             	lea    0x1(%rax),%edx
    6912:	89 55 ec             	mov    %edx,-0x14(%rbp)
    6915:	48 63 d0             	movslq %eax,%rdx
    6918:	48 8b 45 c8          	mov    -0x38(%rbp),%rax
    691c:	48 01 d0             	add    %rdx,%rax
    691f:	c6 00 89             	movb   $0x89,(%rax)
    6922:	8b 45 ec             	mov    -0x14(%rbp),%eax
    6925:	8d 50 01             	lea    0x1(%rax),%edx
    6928:	89 55 ec             	mov    %edx,-0x14(%rbp)
    692b:	48 63 d0             	movslq %eax,%rdx
    692e:	48 8b 45 c8          	mov    -0x38(%rbp),%rax
    6932:	48 01 d0             	add    %rdx,%rax
    6935:	c6 00 e2             	movb   $0xe2,(%rax)
    6938:	e9 db 03 00 00       	jmp    6d18 <move_var+0x5815>
    693d:	8b 45 ec             	mov    -0x14(%rbp),%eax
    6940:	8d 50 01             	lea    0x1(%rax),%edx
    6943:	89 55 ec             	mov    %edx,-0x14(%rbp)
    6946:	48 63 d0             	movslq %eax,%rdx
    6949:	48 8b 45 c8          	mov    -0x38(%rbp),%rax
    694d:	48 01 d0             	add    %rdx,%rax
    6950:	c6 00 49             	movb   $0x49,(%rax)
    6953:	8b 45 ec             	mov    -0x14(%rbp),%eax
    6956:	8d 50 01             	lea    0x1(%rax),%edx
    6959:	89 55 ec             	mov    %edx,-0x14(%rbp)
    695c:	48 63 d0             	movslq %eax,%rdx
    695f:	48 8b 45 c8          	mov    -0x38(%rbp),%rax
    6963:	48 01 d0             	add    %rdx,%rax
    6966:	c6 00 89             	movb   $0x89,(%rax)
    6969:	8b 45 ec             	mov    -0x14(%rbp),%eax
    696c:	8d 50 01             	lea    0x1(%rax),%edx
    696f:	89 55 ec             	mov    %edx,-0x14(%rbp)
    6972:	48 63 d0             	movslq %eax,%rdx
    6975:	48 8b 45 c8          	mov    -0x38(%rbp),%rax
    6979:	48 01 d0             	add    %rdx,%rax
    697c:	c6 00 e3             	movb   $0xe3,(%rax)
    697f:	e9 94 03 00 00       	jmp    6d18 <move_var+0x5815>
    6984:	8b 45 ec             	mov    -0x14(%rbp),%eax
    6987:	8d 50 01             	lea    0x1(%rax),%edx
    698a:	89 55 ec             	mov    %edx,-0x14(%rbp)
    698d:	48 63 d0             	movslq %eax,%rdx
    6990:	48 8b 45 c8          	mov    -0x38(%rbp),%rax
    6994:	48 01 d0             	add    %rdx,%rax
    6997:	c6 00 49             	movb   $0x49,(%rax)
    699a:	8b 45 ec             	mov    -0x14(%rbp),%eax
    699d:	8d 50 01             	lea    0x1(%rax),%edx
    69a0:	89 55 ec             	mov    %edx,-0x14(%rbp)
    69a3:	48 63 d0             	movslq %eax,%rdx
    69a6:	48 8b 45 c8          	mov    -0x38(%rbp),%rax
    69aa:	48 01 d0             	add    %rdx,%rax
    69ad:	c6 00 89             	movb   $0x89,(%rax)
    69b0:	8b 45 ec             	mov    -0x14(%rbp),%eax
    69b3:	8d 50 01             	lea    0x1(%rax),%edx
    69b6:	89 55 ec             	mov    %edx,-0x14(%rbp)
    69b9:	48 63 d0             	movslq %eax,%rdx
    69bc:	48 8b 45 c8          	mov    -0x38(%rbp),%rax
    69c0:	48 01 d0             	add    %rdx,%rax
    69c3:	c6 00 e4             	movb   $0xe4,(%rax)
    69c6:	e9 4d 03 00 00       	jmp    6d18 <move_var+0x5815>
    69cb:	8b 45 ec             	mov    -0x14(%rbp),%eax
    69ce:	8d 50 01             	lea    0x1(%rax),%edx
    69d1:	89 55 ec             	mov    %edx,-0x14(%rbp)
    69d4:	48 63 d0             	movslq %eax,%rdx
    69d7:	48 8b 45 c8          	mov    -0x38(%rbp),%rax
    69db:	48 01 d0             	add    %rdx,%rax
    69de:	c6 00 49             	movb   $0x49,(%rax)
    69e1:	8b 45 ec             	mov    -0x14(%rbp),%eax
    69e4:	8d 50 01             	lea    0x1(%rax),%edx
    69e7:	89 55 ec             	mov    %edx,-0x14(%rbp)
    69ea:	48 63 d0             	movslq %eax,%rdx
    69ed:	48 8b 45 c8          	mov    -0x38(%rbp),%rax
    69f1:	48 01 d0             	add    %rdx,%rax
    69f4:	c6 00 89             	movb   $0x89,(%rax)
    69f7:	8b 45 ec             	mov    -0x14(%rbp),%eax
    69fa:	8d 50 01             	lea    0x1(%rax),%edx
    69fd:	89 55 ec             	mov    %edx,-0x14(%rbp)
    6a00:	48 63 d0             	movslq %eax,%rdx
    6a03:	48 8b 45 c8          	mov    -0x38(%rbp),%rax
    6a07:	48 01 d0             	add    %rdx,%rax
    6a0a:	c6 00 e5             	movb   $0xe5,(%rax)
    6a0d:	e9 06 03 00 00       	jmp    6d18 <move_var+0x5815>
    6a12:	8b 45 ec             	mov    -0x14(%rbp),%eax
    6a15:	8d 50 01             	lea    0x1(%rax),%edx
    6a18:	89 55 ec             	mov    %edx,-0x14(%rbp)
    6a1b:	48 63 d0             	movslq %eax,%rdx
    6a1e:	48 8b 45 c8          	mov    -0x38(%rbp),%rax
    6a22:	48 01 d0             	add    %rdx,%rax
    6a25:	c6 00 49             	movb   $0x49,(%rax)
    6a28:	8b 45 ec             	mov    -0x14(%rbp),%eax
    6a2b:	8d 50 01             	lea    0x1(%rax),%edx
    6a2e:	89 55 ec             	mov    %edx,-0x14(%rbp)
    6a31:	48 63 d0             	movslq %eax,%rdx
    6a34:	48 8b 45 c8          	mov    -0x38(%rbp),%rax
    6a38:	48 01 d0             	add    %rdx,%rax
    6a3b:	c6 00 89             	movb   $0x89,(%rax)
    6a3e:	8b 45 ec             	mov    -0x14(%rbp),%eax
    6a41:	8d 50 01             	lea    0x1(%rax),%edx
    6a44:	89 55 ec             	mov    %edx,-0x14(%rbp)
    6a47:	48 63 d0             	movslq %eax,%rdx
    6a4a:	48 8b 45 c8          	mov    -0x38(%rbp),%rax
    6a4e:	48 01 d0             	add    %rdx,%rax
    6a51:	c6 00 e6             	movb   $0xe6,(%rax)
    6a54:	e9 bf 02 00 00       	jmp    6d18 <move_var+0x5815>
    6a59:	8b 45 ec             	mov    -0x14(%rbp),%eax
    6a5c:	8d 50 01             	lea    0x1(%rax),%edx
    6a5f:	89 55 ec             	mov    %edx,-0x14(%rbp)
    6a62:	48 63 d0             	movslq %eax,%rdx
    6a65:	48 8b 45 c8          	mov    -0x38(%rbp),%rax
    6a69:	48 01 d0             	add    %rdx,%rax
    6a6c:	c6 00 49             	movb   $0x49,(%rax)
    6a6f:	8b 45 ec             	mov    -0x14(%rbp),%eax
    6a72:	8d 50 01             	lea    0x1(%rax),%edx
    6a75:	89 55 ec             	mov    %edx,-0x14(%rbp)
    6a78:	48 63 d0             	movslq %eax,%rdx
    6a7b:	48 8b 45 c8          	mov    -0x38(%rbp),%rax
    6a7f:	48 01 d0             	add    %rdx,%rax
    6a82:	c6 00 89             	movb   $0x89,(%rax)
    6a85:	8b 45 ec             	mov    -0x14(%rbp),%eax
    6a88:	8d 50 01             	lea    0x1(%rax),%edx
    6a8b:	89 55 ec             	mov    %edx,-0x14(%rbp)
    6a8e:	48 63 d0             	movslq %eax,%rdx
    6a91:	48 8b 45 c8          	mov    -0x38(%rbp),%rax
    6a95:	48 01 d0             	add    %rdx,%rax
    6a98:	c6 00 e7             	movb   $0xe7,(%rax)
    6a9b:	e9 78 02 00 00       	jmp    6d18 <move_var+0x5815>
    6aa0:	8b 45 ec             	mov    -0x14(%rbp),%eax
    6aa3:	8d 50 01             	lea    0x1(%rax),%edx
    6aa6:	89 55 ec             	mov    %edx,-0x14(%rbp)
    6aa9:	48 63 d0             	movslq %eax,%rdx
    6aac:	48 8b 45 c8          	mov    -0x38(%rbp),%rax
    6ab0:	48 01 d0             	add    %rdx,%rax
    6ab3:	c6 00 49             	movb   $0x49,(%rax)
    6ab6:	8b 45 ec             	mov    -0x14(%rbp),%eax
    6ab9:	8d 50 01             	lea    0x1(%rax),%edx
    6abc:	89 55 ec             	mov    %edx,-0x14(%rbp)
    6abf:	48 63 d0             	movslq %eax,%rdx
    6ac2:	48 8b 45 c8          	mov    -0x38(%rbp),%rax
    6ac6:	48 01 d0             	add    %rdx,%rax
    6ac9:	c6 00 89             	movb   $0x89,(%rax)
    6acc:	8b 45 ec             	mov    -0x14(%rbp),%eax
    6acf:	8d 50 01             	lea    0x1(%rax),%edx
    6ad2:	89 55 ec             	mov    %edx,-0x14(%rbp)
    6ad5:	48 63 d0             	movslq %eax,%rdx
    6ad8:	48 8b 45 c8          	mov    -0x38(%rbp),%rax
    6adc:	48 01 d0             	add    %rdx,%rax
    6adf:	c6 00 e0             	movb   $0xe0,(%rax)
    6ae2:	e9 31 02 00 00       	jmp    6d18 <move_var+0x5815>
    6ae7:	8b 45 ec             	mov    -0x14(%rbp),%eax
    6aea:	8d 50 01             	lea    0x1(%rax),%edx
    6aed:	89 55 ec             	mov    %edx,-0x14(%rbp)
    6af0:	48 63 d0             	movslq %eax,%rdx
    6af3:	48 8b 45 c8          	mov    -0x38(%rbp),%rax
    6af7:	48 01 d0             	add    %rdx,%rax
    6afa:	c6 00 49             	movb   $0x49,(%rax)
    6afd:	8b 45 ec             	mov    -0x14(%rbp),%eax
    6b00:	8d 50 01             	lea    0x1(%rax),%edx
    6b03:	89 55 ec             	mov    %edx,-0x14(%rbp)
    6b06:	48 63 d0             	movslq %eax,%rdx
    6b09:	48 8b 45 c8          	mov    -0x38(%rbp),%rax
    6b0d:	48 01 d0             	add    %rdx,%rax
    6b10:	c6 00 89             	movb   $0x89,(%rax)
    6b13:	8b 45 ec             	mov    -0x14(%rbp),%eax
    6b16:	8d 50 01             	lea    0x1(%rax),%edx
    6b19:	89 55 ec             	mov    %edx,-0x14(%rbp)
    6b1c:	48 63 d0             	movslq %eax,%rdx
    6b1f:	48 8b 45 c8          	mov    -0x38(%rbp),%rax
    6b23:	48 01 d0             	add    %rdx,%rax
    6b26:	c6 00 e1             	movb   $0xe1,(%rax)
    6b29:	e9 ea 01 00 00       	jmp    6d18 <move_var+0x5815>
    6b2e:	8b 45 ec             	mov    -0x14(%rbp),%eax
    6b31:	8d 50 01             	lea    0x1(%rax),%edx
    6b34:	89 55 ec             	mov    %edx,-0x14(%rbp)
    6b37:	48 63 d0             	movslq %eax,%rdx
    6b3a:	48 8b 45 c8          	mov    -0x38(%rbp),%rax
    6b3e:	48 01 d0             	add    %rdx,%rax
    6b41:	c6 00 48             	movb   $0x48,(%rax)
    6b44:	8b 45 ec             	mov    -0x14(%rbp),%eax
    6b47:	8d 50 01             	lea    0x1(%rax),%edx
    6b4a:	89 55 ec             	mov    %edx,-0x14(%rbp)
    6b4d:	48 63 d0             	movslq %eax,%rdx
    6b50:	48 8b 45 c8          	mov    -0x38(%rbp),%rax
    6b54:	48 01 d0             	add    %rdx,%rax
    6b57:	c6 00 89             	movb   $0x89,(%rax)
    6b5a:	8b 45 ec             	mov    -0x14(%rbp),%eax
    6b5d:	8d 50 01             	lea    0x1(%rax),%edx
    6b60:	89 55 ec             	mov    %edx,-0x14(%rbp)
    6b63:	48 63 d0             	movslq %eax,%rdx
    6b66:	48 8b 45 c8          	mov    -0x38(%rbp),%rax
    6b6a:	48 01 d0             	add    %rdx,%rax
    6b6d:	c6 00 e0             	movb   $0xe0,(%rax)
    6b70:	e9 a3 01 00 00       	jmp    6d18 <move_var+0x5815>
    6b75:	8b 45 ec             	mov    -0x14(%rbp),%eax
    6b78:	8d 50 01             	lea    0x1(%rax),%edx
    6b7b:	89 55 ec             	mov    %edx,-0x14(%rbp)
    6b7e:	48 63 d0             	movslq %eax,%rdx
    6b81:	48 8b 45 c8          	mov    -0x38(%rbp),%rax
    6b85:	48 01 d0             	add    %rdx,%rax
    6b88:	c6 00 48             	movb   $0x48,(%rax)
    6b8b:	8b 45 ec             	mov    -0x14(%rbp),%eax
    6b8e:	8d 50 01             	lea    0x1(%rax),%edx
    6b91:	89 55 ec             	mov    %edx,-0x14(%rbp)
    6b94:	48 63 d0             	movslq %eax,%rdx
    6b97:	48 8b 45 c8          	mov    -0x38(%rbp),%rax
    6b9b:	48 01 d0             	add    %rdx,%rax
    6b9e:	c6 00 89             	movb   $0x89,(%rax)
    6ba1:	8b 45 ec             	mov    -0x14(%rbp),%eax
    6ba4:	8d 50 01             	lea    0x1(%rax),%edx
    6ba7:	89 55 ec             	mov    %edx,-0x14(%rbp)
    6baa:	48 63 d0             	movslq %eax,%rdx
    6bad:	48 8b 45 c8          	mov    -0x38(%rbp),%rax
    6bb1:	48 01 d0             	add    %rdx,%rax
    6bb4:	c6 00 e5             	movb   $0xe5,(%rax)
    6bb7:	e9 5c 01 00 00       	jmp    6d18 <move_var+0x5815>
    6bbc:	8b 45 ec             	mov    -0x14(%rbp),%eax
    6bbf:	8d 50 01             	lea    0x1(%rax),%edx
    6bc2:	89 55 ec             	mov    %edx,-0x14(%rbp)
    6bc5:	48 63 d0             	movslq %eax,%rdx
    6bc8:	48 8b 45 c8          	mov    -0x38(%rbp),%rax
    6bcc:	48 01 d0             	add    %rdx,%rax
    6bcf:	c6 00 48             	movb   $0x48,(%rax)
    6bd2:	8b 45 ec             	mov    -0x14(%rbp),%eax
    6bd5:	8d 50 01             	lea    0x1(%rax),%edx
    6bd8:	89 55 ec             	mov    %edx,-0x14(%rbp)
    6bdb:	48 63 d0             	movslq %eax,%rdx
    6bde:	48 8b 45 c8          	mov    -0x38(%rbp),%rax
    6be2:	48 01 d0             	add    %rdx,%rax
    6be5:	c6 00 89             	movb   $0x89,(%rax)
    6be8:	8b 45 ec             	mov    -0x14(%rbp),%eax
    6beb:	8d 50 01             	lea    0x1(%rax),%edx
    6bee:	89 55 ec             	mov    %edx,-0x14(%rbp)
    6bf1:	48 63 d0             	movslq %eax,%rdx
    6bf4:	48 8b 45 c8          	mov    -0x38(%rbp),%rax
    6bf8:	48 01 d0             	add    %rdx,%rax
    6bfb:	c6 00 e3             	movb   $0xe3,(%rax)
    6bfe:	e9 15 01 00 00       	jmp    6d18 <move_var+0x5815>
    6c03:	8b 45 ec             	mov    -0x14(%rbp),%eax
    6c06:	8d 50 01             	lea    0x1(%rax),%edx
    6c09:	89 55 ec             	mov    %edx,-0x14(%rbp)
    6c0c:	48 63 d0             	movslq %eax,%rdx
    6c0f:	48 8b 45 c8          	mov    -0x38(%rbp),%rax
    6c13:	48 01 d0             	add    %rdx,%rax
    6c16:	c6 00 48             	movb   $0x48,(%rax)
    6c19:	8b 45 ec             	mov    -0x14(%rbp),%eax
    6c1c:	8d 50 01             	lea    0x1(%rax),%edx
    6c1f:	89 55 ec             	mov    %edx,-0x14(%rbp)
    6c22:	48 63 d0             	movslq %eax,%rdx
    6c25:	48 8b 45 c8          	mov    -0x38(%rbp),%rax
    6c29:	48 01 d0             	add    %rdx,%rax
    6c2c:	c6 00 89             	movb   $0x89,(%rax)
    6c2f:	8b 45 ec             	mov    -0x14(%rbp),%eax
    6c32:	8d 50 01             	lea    0x1(%rax),%edx
    6c35:	89 55 ec             	mov    %edx,-0x14(%rbp)
    6c38:	48 63 d0             	movslq %eax,%rdx
    6c3b:	48 8b 45 c8          	mov    -0x38(%rbp),%rax
    6c3f:	48 01 d0             	add    %rdx,%rax
    6c42:	c6 00 e1             	movb   $0xe1,(%rax)
    6c45:	e9 ce 00 00 00       	jmp    6d18 <move_var+0x5815>
    6c4a:	8b 45 ec             	mov    -0x14(%rbp),%eax
    6c4d:	8d 50 01             	lea    0x1(%rax),%edx
    6c50:	89 55 ec             	mov    %edx,-0x14(%rbp)
    6c53:	48 63 d0             	movslq %eax,%rdx
    6c56:	48 8b 45 c8          	mov    -0x38(%rbp),%rax
    6c5a:	48 01 d0             	add    %rdx,%rax
    6c5d:	c6 00 48             	movb   $0x48,(%rax)
    6c60:	8b 45 ec             	mov    -0x14(%rbp),%eax
    6c63:	8d 50 01             	lea    0x1(%rax),%edx
    6c66:	89 55 ec             	mov    %edx,-0x14(%rbp)
    6c69:	48 63 d0             	movslq %eax,%rdx
    6c6c:	48 8b 45 c8          	mov    -0x38(%rbp),%rax
    6c70:	48 01 d0             	add    %rdx,%rax
    6c73:	c6 00 89             	movb   $0x89,(%rax)
    6c76:	8b 45 ec             	mov    -0x14(%rbp),%eax
    6c79:	8d 50 01             	lea    0x1(%rax),%edx
    6c7c:	89 55 ec             	mov    %edx,-0x14(%rbp)
    6c7f:	48 63 d0             	movslq %eax,%rdx
    6c82:	48 8b 45 c8          	mov    -0x38(%rbp),%rax
    6c86:	48 01 d0             	add    %rdx,%rax
    6c89:	c6 00 e7             	movb   $0xe7,(%rax)
    6c8c:	e9 87 00 00 00       	jmp    6d18 <move_var+0x5815>
    6c91:	8b 45 ec             	mov    -0x14(%rbp),%eax
    6c94:	8d 50 01             	lea    0x1(%rax),%edx
    6c97:	89 55 ec             	mov    %edx,-0x14(%rbp)
    6c9a:	48 63 d0             	movslq %eax,%rdx
    6c9d:	48 8b 45 c8          	mov    -0x38(%rbp),%rax
    6ca1:	48 01 d0             	add    %rdx,%rax
    6ca4:	c6 00 48             	movb   $0x48,(%rax)
    6ca7:	8b 45 ec             	mov    -0x14(%rbp),%eax
    6caa:	8d 50 01             	lea    0x1(%rax),%edx
    6cad:	89 55 ec             	mov    %edx,-0x14(%rbp)
    6cb0:	48 63 d0             	movslq %eax,%rdx
    6cb3:	48 8b 45 c8          	mov    -0x38(%rbp),%rax
    6cb7:	48 01 d0             	add    %rdx,%rax
    6cba:	c6 00 89             	movb   $0x89,(%rax)
    6cbd:	8b 45 ec             	mov    -0x14(%rbp),%eax
    6cc0:	8d 50 01             	lea    0x1(%rax),%edx
    6cc3:	89 55 ec             	mov    %edx,-0x14(%rbp)
    6cc6:	48 63 d0             	movslq %eax,%rdx
    6cc9:	48 8b 45 c8          	mov    -0x38(%rbp),%rax
    6ccd:	48 01 d0             	add    %rdx,%rax
    6cd0:	c6 00 e2             	movb   $0xe2,(%rax)
    6cd3:	eb 43                	jmp    6d18 <move_var+0x5815>
    6cd5:	8b 45 ec             	mov    -0x14(%rbp),%eax
    6cd8:	8d 50 01             	lea    0x1(%rax),%edx
    6cdb:	89 55 ec             	mov    %edx,-0x14(%rbp)
    6cde:	48 63 d0             	movslq %eax,%rdx
    6ce1:	48 8b 45 c8          	mov    -0x38(%rbp),%rax
    6ce5:	48 01 d0             	add    %rdx,%rax
    6ce8:	c6 00 48             	movb   $0x48,(%rax)
    6ceb:	8b 45 ec             	mov    -0x14(%rbp),%eax
    6cee:	8d 50 01             	lea    0x1(%rax),%edx
    6cf1:	89 55 ec             	mov    %edx,-0x14(%rbp)
    6cf4:	48 63 d0             	movslq %eax,%rdx
    6cf7:	48 8b 45 c8          	mov    -0x38(%rbp),%rax
    6cfb:	48 01 d0             	add    %rdx,%rax
    6cfe:	c6 00 89             	movb   $0x89,(%rax)
    6d01:	8b 45 ec             	mov    -0x14(%rbp),%eax
    6d04:	8d 50 01             	lea    0x1(%rax),%edx
    6d07:	89 55 ec             	mov    %edx,-0x14(%rbp)
    6d0a:	48 63 d0             	movslq %eax,%rdx
    6d0d:	48 8b 45 c8          	mov    -0x38(%rbp),%rax
    6d11:	48 01 d0             	add    %rdx,%rax
    6d14:	c6 00 e6             	movb   $0xe6,(%rax)
    6d17:	90                   	nop
    6d18:	eb 2d                	jmp    6d47 <move_var+0x5844>
    6d1a:	90                   	nop
    6d1b:	eb 2b                	jmp    6d48 <move_var+0x5845>
    6d1d:	90                   	nop
    6d1e:	eb 28                	jmp    6d48 <move_var+0x5845>
    6d20:	90                   	nop
    6d21:	eb 25                	jmp    6d48 <move_var+0x5845>
    6d23:	90                   	nop
    6d24:	eb 22                	jmp    6d48 <move_var+0x5845>
    6d26:	90                   	nop
    6d27:	eb 1f                	jmp    6d48 <move_var+0x5845>
    6d29:	90                   	nop
    6d2a:	eb 1c                	jmp    6d48 <move_var+0x5845>
    6d2c:	90                   	nop
    6d2d:	eb 19                	jmp    6d48 <move_var+0x5845>
    6d2f:	90                   	nop
    6d30:	eb 16                	jmp    6d48 <move_var+0x5845>
    6d32:	90                   	nop
    6d33:	eb 13                	jmp    6d48 <move_var+0x5845>
    6d35:	90                   	nop
    6d36:	eb 10                	jmp    6d48 <move_var+0x5845>
    6d38:	90                   	nop
    6d39:	eb 0d                	jmp    6d48 <move_var+0x5845>
    6d3b:	90                   	nop
    6d3c:	eb 0a                	jmp    6d48 <move_var+0x5845>
    6d3e:	90                   	nop
    6d3f:	eb 07                	jmp    6d48 <move_var+0x5845>
    6d41:	90                   	nop
    6d42:	eb 04                	jmp    6d48 <move_var+0x5845>
    6d44:	90                   	nop
    6d45:	eb 01                	jmp    6d48 <move_var+0x5845>
    6d47:	90                   	nop
    6d48:	90                   	nop
    6d49:	c9                   	leave
    6d4a:	c3                   	ret
